---
triple:          'arm64-apple-darwin'
binary-path:     a.out
relocations:
  - { offsetInCU: 0x3C, offset: 0x3C, size: 0x8, addend: 0x0, symName: _.str, symObjAddr: 0x656E0, symBinAddr: 0x100068DA0, symSize: 0x0 }
  - { offsetInCU: 0x6D, offset: 0x6D, size: 0x8, addend: 0x0, symName: ___func__.main, symObjAddr: 0x65700, symBinAddr: 0x100068DC0, symSize: 0x0 }
  - { offsetInCU: 0x8B, offset: 0x8B, size: 0x8, addend: 0x0, symName: _.str.1, symObjAddr: 0x65720, symBinAddr: 0x100068DE0, symSize: 0x0 }
  - { offsetInCU: 0xA9, offset: 0xA9, size: 0x8, addend: 0x0, symName: _.str.2, symObjAddr: 0x65740, symBinAddr: 0x100068E00, symSize: 0x0 }
  - { offsetInCU: 0xC7, offset: 0xC7, size: 0x8, addend: 0x0, symName: _.str.3, symObjAddr: 0x657E0, symBinAddr: 0x100068EA0, symSize: 0x0 }
  - { offsetInCU: 0xE5, offset: 0xE5, size: 0x8, addend: 0x0, symName: _.str.4, symObjAddr: 0x65880, symBinAddr: 0x100068F40, symSize: 0x0 }
  - { offsetInCU: 0x103, offset: 0x103, size: 0x8, addend: 0x0, symName: _.str.5, symObjAddr: 0x658A0, symBinAddr: 0x100068F60, symSize: 0x0 }
  - { offsetInCU: 0x121, offset: 0x121, size: 0x8, addend: 0x0, symName: _.str.6, symObjAddr: 0x65940, symBinAddr: 0x100069000, symSize: 0x0 }
  - { offsetInCU: 0x13F, offset: 0x13F, size: 0x8, addend: 0x0, symName: _.str.7, symObjAddr: 0x659E0, symBinAddr: 0x1000690A0, symSize: 0x0 }
  - { offsetInCU: 0x151, offset: 0x151, size: 0x8, addend: 0x0, symName: _.str.8, symObjAddr: 0x65A80, symBinAddr: 0x100069140, symSize: 0x0 }
  - { offsetInCU: 0x163, offset: 0x163, size: 0x8, addend: 0x0, symName: _.str.9, symObjAddr: 0x65B20, symBinAddr: 0x1000691E0, symSize: 0x0 }
  - { offsetInCU: 0x175, offset: 0x175, size: 0x8, addend: 0x0, symName: _.str.10, symObjAddr: 0x65BC0, symBinAddr: 0x100069280, symSize: 0x0 }
  - { offsetInCU: 0x187, offset: 0x187, size: 0x8, addend: 0x0, symName: _.str.11, symObjAddr: 0x65C60, symBinAddr: 0x100069320, symSize: 0x0 }
  - { offsetInCU: 0x199, offset: 0x199, size: 0x8, addend: 0x0, symName: _.str.12, symObjAddr: 0x65D00, symBinAddr: 0x1000693C0, symSize: 0x0 }
  - { offsetInCU: 0x1AB, offset: 0x1AB, size: 0x8, addend: 0x0, symName: _.str.13, symObjAddr: 0x65DA0, symBinAddr: 0x100069460, symSize: 0x0 }
  - { offsetInCU: 0x1BD, offset: 0x1BD, size: 0x8, addend: 0x0, symName: _.str.14, symObjAddr: 0x65E40, symBinAddr: 0x100069500, symSize: 0x0 }
  - { offsetInCU: 0x1CF, offset: 0x1CF, size: 0x8, addend: 0x0, symName: _.str.15, symObjAddr: 0x65EE0, symBinAddr: 0x1000695A0, symSize: 0x0 }
  - { offsetInCU: 0x1E1, offset: 0x1E1, size: 0x8, addend: 0x0, symName: _.str.16, symObjAddr: 0x65F80, symBinAddr: 0x100069640, symSize: 0x0 }
  - { offsetInCU: 0x1F3, offset: 0x1F3, size: 0x8, addend: 0x0, symName: _.str.17, symObjAddr: 0x66020, symBinAddr: 0x1000696E0, symSize: 0x0 }
  - { offsetInCU: 0x205, offset: 0x205, size: 0x8, addend: 0x0, symName: _.str.18, symObjAddr: 0x660C0, symBinAddr: 0x100069780, symSize: 0x0 }
  - { offsetInCU: 0x217, offset: 0x217, size: 0x8, addend: 0x0, symName: _.str.19, symObjAddr: 0x66160, symBinAddr: 0x100069820, symSize: 0x0 }
  - { offsetInCU: 0x235, offset: 0x235, size: 0x8, addend: 0x0, symName: _.str.20, symObjAddr: 0x661A0, symBinAddr: 0x100069860, symSize: 0x0 }
  - { offsetInCU: 0x253, offset: 0x253, size: 0x8, addend: 0x0, symName: _.str.21, symObjAddr: 0x66220, symBinAddr: 0x1000698E0, symSize: 0x0 }
  - { offsetInCU: 0x271, offset: 0x271, size: 0x8, addend: 0x0, symName: _.str.22, symObjAddr: 0x66240, symBinAddr: 0x100069900, symSize: 0x0 }
  - { offsetInCU: 0x28F, offset: 0x28F, size: 0x8, addend: 0x0, symName: _.str.23, symObjAddr: 0x662C0, symBinAddr: 0x100069980, symSize: 0x0 }
  - { offsetInCU: 0x2AD, offset: 0x2AD, size: 0x8, addend: 0x0, symName: _.str.24, symObjAddr: 0x662E0, symBinAddr: 0x1000699A0, symSize: 0x0 }
  - { offsetInCU: 0x2CB, offset: 0x2CB, size: 0x8, addend: 0x0, symName: _.str.25, symObjAddr: 0x66360, symBinAddr: 0x100069A20, symSize: 0x0 }
  - { offsetInCU: 0x2DD, offset: 0x2DD, size: 0x8, addend: 0x0, symName: _.str.26, symObjAddr: 0x663A0, symBinAddr: 0x100069A60, symSize: 0x0 }
  - { offsetInCU: 0x2EF, offset: 0x2EF, size: 0x8, addend: 0x0, symName: _.str.27, symObjAddr: 0x66420, symBinAddr: 0x100069AE0, symSize: 0x0 }
  - { offsetInCU: 0x30D, offset: 0x30D, size: 0x8, addend: 0x0, symName: _.str.28, symObjAddr: 0x66480, symBinAddr: 0x100069B40, symSize: 0x0 }
  - { offsetInCU: 0x31F, offset: 0x31F, size: 0x8, addend: 0x0, symName: _.str.29, symObjAddr: 0x664E0, symBinAddr: 0x100069BA0, symSize: 0x0 }
  - { offsetInCU: 0x331, offset: 0x331, size: 0x8, addend: 0x0, symName: _.str.30, symObjAddr: 0x66540, symBinAddr: 0x100069C00, symSize: 0x0 }
  - { offsetInCU: 0x343, offset: 0x343, size: 0x8, addend: 0x0, symName: _.str.31, symObjAddr: 0x665A0, symBinAddr: 0x100069C60, symSize: 0x0 }
  - { offsetInCU: 0x355, offset: 0x355, size: 0x8, addend: 0x0, symName: _.str.32, symObjAddr: 0x66600, symBinAddr: 0x100069CC0, symSize: 0x0 }
  - { offsetInCU: 0x367, offset: 0x367, size: 0x8, addend: 0x0, symName: _.str.33, symObjAddr: 0x66620, symBinAddr: 0x100069CE0, symSize: 0x0 }
  - { offsetInCU: 0x379, offset: 0x379, size: 0x8, addend: 0x0, symName: _.str.34, symObjAddr: 0x66680, symBinAddr: 0x100069D40, symSize: 0x0 }
  - { offsetInCU: 0x398, offset: 0x398, size: 0x8, addend: 0x0, symName: _.str.35, symObjAddr: 0x66940, symBinAddr: 0x10006A000, symSize: 0x0 }
  - { offsetInCU: 0x3B7, offset: 0x3B7, size: 0x8, addend: 0x0, symName: _.str.36, symObjAddr: 0x66C20, symBinAddr: 0x10006A2E0, symSize: 0x0 }
  - { offsetInCU: 0x3D6, offset: 0x3D6, size: 0x8, addend: 0x0, symName: _.str.37, symObjAddr: 0x66F00, symBinAddr: 0x10006A5C0, symSize: 0x0 }
  - { offsetInCU: 0x3F5, offset: 0x3F5, size: 0x8, addend: 0x0, symName: _.str.38, symObjAddr: 0x67260, symBinAddr: 0x10006A920, symSize: 0x0 }
  - { offsetInCU: 0x407, offset: 0x407, size: 0x8, addend: 0x0, symName: _.str.39, symObjAddr: 0x67280, symBinAddr: 0x10006A940, symSize: 0x0 }
  - { offsetInCU: 0x426, offset: 0x426, size: 0x8, addend: 0x0, symName: _.str.40, symObjAddr: 0x674C0, symBinAddr: 0x10006AB80, symSize: 0x0 }
  - { offsetInCU: 0x438, offset: 0x438, size: 0x8, addend: 0x0, symName: _.str.41, symObjAddr: 0x674E0, symBinAddr: 0x10006ABA0, symSize: 0x0 }
  - { offsetInCU: 0x457, offset: 0x457, size: 0x8, addend: 0x0, symName: _.str.42, symObjAddr: 0x677E0, symBinAddr: 0x10006AEA0, symSize: 0x0 }
  - { offsetInCU: 0x475, offset: 0x475, size: 0x8, addend: 0x0, symName: _.str.43, symObjAddr: 0x67800, symBinAddr: 0x10006AEC0, symSize: 0x0 }
  - { offsetInCU: 0x493, offset: 0x493, size: 0x8, addend: 0x0, symName: _.str.44, symObjAddr: 0x678A0, symBinAddr: 0x10006AF60, symSize: 0x0 }
  - { offsetInCU: 0x4A5, offset: 0x4A5, size: 0x8, addend: 0x0, symName: _.str.45, symObjAddr: 0x678C0, symBinAddr: 0x10006AF80, symSize: 0x0 }
  - { offsetInCU: 0x4C3, offset: 0x4C3, size: 0x8, addend: 0x0, symName: _.str.46, symObjAddr: 0x67960, symBinAddr: 0x10006B020, symSize: 0x0 }
  - { offsetInCU: 0x4D5, offset: 0x4D5, size: 0x8, addend: 0x0, symName: _.str.47, symObjAddr: 0x67980, symBinAddr: 0x10006B040, symSize: 0x0 }
  - { offsetInCU: 0x4F3, offset: 0x4F3, size: 0x8, addend: 0x0, symName: _.str.48, symObjAddr: 0x67A00, symBinAddr: 0x10006B0C0, symSize: 0x0 }
  - { offsetInCU: 0x505, offset: 0x505, size: 0x8, addend: 0x0, symName: _.str.49, symObjAddr: 0x67A20, symBinAddr: 0x10006B0E0, symSize: 0x0 }
  - { offsetInCU: 0x523, offset: 0x523, size: 0x8, addend: 0x0, symName: _.str.50, symObjAddr: 0x67AA0, symBinAddr: 0x10006B160, symSize: 0x0 }
  - { offsetInCU: 0x541, offset: 0x541, size: 0x8, addend: 0x0, symName: _.str.51, symObjAddr: 0x67AC0, symBinAddr: 0x10006B180, symSize: 0x0 }
  - { offsetInCU: 0x55F, offset: 0x55F, size: 0x8, addend: 0x0, symName: _.str.52, symObjAddr: 0x67B20, symBinAddr: 0x10006B1E0, symSize: 0x0 }
  - { offsetInCU: 0x571, offset: 0x571, size: 0x8, addend: 0x0, symName: _.str.53, symObjAddr: 0x67B40, symBinAddr: 0x10006B200, symSize: 0x0 }
  - { offsetInCU: 0x58F, offset: 0x58F, size: 0x8, addend: 0x0, symName: _.str.54, symObjAddr: 0x67BA0, symBinAddr: 0x10006B260, symSize: 0x0 }
  - { offsetInCU: 0x5AD, offset: 0x5AD, size: 0x8, addend: 0x0, symName: _.str.55, symObjAddr: 0x67BE0, symBinAddr: 0x10006B2A0, symSize: 0x0 }
  - { offsetInCU: 0x5BF, offset: 0x5BF, size: 0x8, addend: 0x0, symName: _.str.56, symObjAddr: 0x680E0, symBinAddr: 0x10006B7A0, symSize: 0x0 }
  - { offsetInCU: 0x5DD, offset: 0x5DD, size: 0x8, addend: 0x0, symName: _.str.57, symObjAddr: 0x67C80, symBinAddr: 0x10006B340, symSize: 0x0 }
  - { offsetInCU: 0x5FB, offset: 0x5FB, size: 0x8, addend: 0x0, symName: _.str.58, symObjAddr: 0x67CA0, symBinAddr: 0x10006B360, symSize: 0x0 }
  - { offsetInCU: 0x60D, offset: 0x60D, size: 0x8, addend: 0x0, symName: _.str.59, symObjAddr: 0x67D20, symBinAddr: 0x10006B3E0, symSize: 0x0 }
  - { offsetInCU: 0x61F, offset: 0x61F, size: 0x8, addend: 0x0, symName: _.str.60, symObjAddr: 0x67D80, symBinAddr: 0x10006B440, symSize: 0x0 }
  - { offsetInCU: 0x63E, offset: 0x63E, size: 0x8, addend: 0x0, symName: _.str.61, symObjAddr: 0x68040, symBinAddr: 0x10006B700, symSize: 0x0 }
  - { offsetInCU: 0x650, offset: 0x650, size: 0x8, addend: 0x0, symName: _.str.62, symObjAddr: 0x680C0, symBinAddr: 0x10006B780, symSize: 0x0 }
  - { offsetInCU: 0x675, offset: 0x675, size: 0x8, addend: 0x0, symName: __ZNSt3__115strong_ordering7greaterE, symObjAddr: 0x68101, symBinAddr: 0x10006B7C1, symSize: 0x0 }
  - { offsetInCU: 0x842, offset: 0x842, size: 0x8, addend: 0x0, symName: __ZNSt3__115strong_ordering4lessE, symObjAddr: 0x68102, symBinAddr: 0x10006B7C2, symSize: 0x0 }
  - { offsetInCU: 0x855, offset: 0x855, size: 0x8, addend: 0x0, symName: __ZNSt3__115strong_ordering5equalE, symObjAddr: 0x68100, symBinAddr: 0x10006B7C0, symSize: 0x0 }
  - { offsetInCU: 0xB3C7, offset: 0xB3C7, size: 0x8, addend: 0x0, symName: __ZNSt3__17advanceB8ue170006IPNS_12basic_stringIcNS_11char_traitsIcEENS_9allocatorIcEEEEllvEEvRT_T0_, symObjAddr: 0x1F080, symBinAddr: 0x10002206C, symSize: 0x38 }
  - { offsetInCU: 0xB647, offset: 0xB647, size: 0x8, addend: 0x0, symName: __ZNSt3__17advanceB8ue170006INS_16reverse_iteratorIPNS_12basic_stringIcNS_11char_traitsIcEENS_9allocatorIcEEEEEEllvEEvRT_T0_, symObjAddr: 0x20334, symBinAddr: 0x100023320, symSize: 0x38 }
  - { offsetInCU: 0xB6B2, offset: 0xB6B2, size: 0x8, addend: 0x0, symName: __ZNSt3__111__introsortINS_17_ClassicAlgPolicyERNS_6__lessIvvEEPNS_12basic_stringIcNS_11char_traitsIcEENS_9allocatorIcEEEELb0EEEvT1_SC_T0_NS_15iterator_traitsISC_E15difference_typeEb, symObjAddr: 0x21C24, symBinAddr: 0x100024C10, symSize: 0x1250 }
  - { offsetInCU: 0xB7EA, offset: 0xB7EA, size: 0x8, addend: 0x0, symName: __ZNSt3__126__insertion_sort_unguardedB8ue170006INS_17_ClassicAlgPolicyERNS_6__lessIvvEEPNS_12basic_stringIcNS_11char_traitsIcEENS_9allocatorIcEEEEEEvT1_SC_T0_, symObjAddr: 0x23940, symBinAddr: 0x10002692C, symSize: 0x644 }
  - { offsetInCU: 0xB8D4, offset: 0xB8D4, size: 0x8, addend: 0x0, symName: __ZNSt3__111__sift_downB8ue170006INS_17_ClassicAlgPolicyERNS_6__lessIvvEEPNS_12basic_stringIcNS_11char_traitsIcEENS_9allocatorIcEEEEEEvT1_OT0_NS_15iterator_traitsISC_E15difference_typeESC_, symObjAddr: 0x296F8, symBinAddr: 0x10002C6E4, symSize: 0x8A8 }
  - { offsetInCU: 0xB991, offset: 0xB991, size: 0x8, addend: 0x0, symName: __ZNSt3__117__floyd_sift_downB8ue170006INS_17_ClassicAlgPolicyERNS_6__lessIvvEEPNS_12basic_stringIcNS_11char_traitsIcEENS_9allocatorIcEEEEEET1_SC_OT0_NS_15iterator_traitsISC_E15difference_typeE, symObjAddr: 0x2A5C4, symBinAddr: 0x10002D5B0, symSize: 0x3D4 }
  - { offsetInCU: 0xBA32, offset: 0xBA32, size: 0x8, addend: 0x0, symName: __ZNSt3__131__partition_with_equals_on_leftB8ue170006INS_17_ClassicAlgPolicyEPNS_12basic_stringIcNS_11char_traitsIcEENS_9allocatorIcEEEERNS_6__lessIvvEEEET0_SC_SC_T1_, symObjAddr: 0x24734, symBinAddr: 0x100027720, symSize: 0xACC }
  - { offsetInCU: 0xBB01, offset: 0xBB01, size: 0x8, addend: 0x0, symName: __ZNSt3__118__bitset_partitionB8ue170006INS_17_ClassicAlgPolicyEPNS_12basic_stringIcNS_11char_traitsIcEENS_9allocatorIcEEEERNS_6__lessIvvEEEENS_4pairIT0_bEESD_SD_T1_, symObjAddr: 0x25200, symBinAddr: 0x1000281EC, symSize: 0x1030 }
  - { offsetInCU: 0xBC21, offset: 0xBC21, size: 0x8, addend: 0x0, symName: __ZNSt3__124__swap_bitmap_pos_withinB8ue170006INS_17_ClassicAlgPolicyEPNS_12basic_stringIcNS_11char_traitsIcEENS_9allocatorIcEEEEEEvRT0_SA_RySB_, symObjAddr: 0x2BDC4, symBinAddr: 0x10002EDB0, symSize: 0x7C0 }
  - { offsetInCU: 0xBCFC, offset: 0xBCFC, size: 0x8, addend: 0x0, symName: __ZNSt3__132__partition_with_equals_on_rightB8ue170006INS_17_ClassicAlgPolicyEPNS_12basic_stringIcNS_11char_traitsIcEENS_9allocatorIcEEEERNS_6__lessIvvEEEENS_4pairIT0_bEESD_SD_T1_, symObjAddr: 0x26230, symBinAddr: 0x10002921C, symSize: 0xBE8 }
  - { offsetInCU: 0xBDE0, offset: 0xBDE0, size: 0x8, addend: 0x0, symName: __ZNSt3__127__insertion_sort_incompleteB8ue170006INS_17_ClassicAlgPolicyERNS_6__lessIvvEEPNS_12basic_stringIcNS_11char_traitsIcEENS_9allocatorIcEEEEEEbT1_SC_T0_, symObjAddr: 0x26E18, symBinAddr: 0x100029E04, symSize: 0xCF8 }
  - { offsetInCU: 0xC85E, offset: 0xC85E, size: 0x8, addend: 0x0, symName: __ZNSt3__17advanceB8ue170006INS_15__list_iteratorI8CStudentPvEEllvEEvRT_T0_, symObjAddr: 0x40F78, symBinAddr: 0x100043F64, symSize: 0x38 }
  - { offsetInCU: 0xFD9C, offset: 0xFD9C, size: 0x8, addend: 0x0, symName: __ZNSt3__17advanceB8ue170006IPNS_4pairI8ESortKeybEEllvEEvRT_T0_, symObjAddr: 0x4C884, symBinAddr: 0x10004F870, symSize: 0x38 }
  - { offsetInCU: 0x1015E, offset: 0x1015E, size: 0x8, addend: 0x0, symName: __ZNSt3__17advanceB8ue170006INS_16reverse_iteratorIPNS_4pairI8ESortKeybEEEEllvEEvRT_T0_, symObjAddr: 0x52634, symBinAddr: 0x100055620, symSize: 0x38 }
  - { offsetInCU: 0x10F5D, offset: 0x10F5D, size: 0x8, addend: 0x0, symName: __ZNSt3__17advanceB8ue170006INS_21__tree_const_iteratorINS_12basic_stringIcNS_11char_traitsIcEENS_9allocatorIcEEEEPNS_11__tree_nodeIS7_PvEElEEllvEEvRT_T0_, symObjAddr: 0x61CE4, symBinAddr: 0x100064CD0, symSize: 0x38 }
  - { offsetInCU: 0x10FE4, offset: 0x10FE4, size: 0x8, addend: 0x0, symName: __ZNSt3__124__put_character_sequenceB8ue170006IcNS_11char_traitsIcEEEERNS_13basic_ostreamIT_T0_EES7_PKS4_m, symObjAddr: 0x62060, symBinAddr: 0x10006504C, symSize: 0x744 }
  - { offsetInCU: 0x1448D, offset: 0x1448D, size: 0x8, addend: 0x0, symName: __ZNSt3__1eqB8ue170006I8CStudentNS_9allocatorIS1_EEEEbRKNS_4listIT_T0_EES9_, symObjAddr: 0xE9F8, symBinAddr: 0x1000119E4, symSize: 0x3F8 }
  - { offsetInCU: 0x144DE, offset: 0x144DE, size: 0x8, addend: 0x0, symName: __ZNSt3__1eqB8ue170006INS_12basic_stringIcNS_11char_traitsIcEENS_9allocatorIcEEEENS_4lessIS6_EENS4_IS6_EEEEbRKNS_3setIT_T0_T1_EESG_, symObjAddr: 0x101D8, symBinAddr: 0x1000131C4, symSize: 0x3F8 }
  - { offsetInCU: 0x14538, offset: 0x14538, size: 0x8, addend: 0x0, symName: __ZNSt3__1neB8ue170006ERKNS_21__tree_const_iteratorINS_12basic_stringIcNS_11char_traitsIcEENS_9allocatorIcEEEEPNS_11__tree_nodeIS6_PvEElEESD_, symObjAddr: 0x115B4, symBinAddr: 0x1000145A0, symSize: 0x34 }
  - { offsetInCU: 0x14575, offset: 0x14575, size: 0x8, addend: 0x0, symName: __ZNSt3__1lsB8ue170006INS_11char_traitsIcEEEERNS_13basic_ostreamIcT_EES6_PKc, symObjAddr: 0x11610, symBinAddr: 0x1000145FC, symSize: 0x48 }
  - { offsetInCU: 0x145BB, offset: 0x145BB, size: 0x8, addend: 0x0, symName: __ZNSt3__1lsB8ue170006IcNS_11char_traitsIcEENS_9allocatorIcEEEERNS_13basic_ostreamIT_T0_EES9_RKNS_12basic_stringIS6_S7_T1_EE, symObjAddr: 0x11658, symBinAddr: 0x100014644, symSize: 0x4C }
  - { offsetInCU: 0x14646, offset: 0x14646, size: 0x8, addend: 0x0, symName: __ZNSt3__118__constexpr_strlenB8ue170006EPKc, symObjAddr: 0x12898, symBinAddr: 0x100015884, symSize: 0x24 }
  - { offsetInCU: 0x14672, offset: 0x14672, size: 0x8, addend: 0x0, symName: __ZNSt3__14sortB8ue170006INS_11__wrap_iterIPNS_12basic_stringIcNS_11char_traitsIcEENS_9allocatorIcEEEEEEEEvT_SA_, symObjAddr: 0x13548, symBinAddr: 0x100016534, symSize: 0x348 }
  - { offsetInCU: 0x146BC, offset: 0x146BC, size: 0x8, addend: 0x0, symName: __ZNSt3__1neB8ue170006IPcEEbRKNS_11__wrap_iterIT_EES6_, symObjAddr: 0x14D70, symBinAddr: 0x100017D5C, symSize: 0x34 }
  - { offsetInCU: 0x146FF, offset: 0x146FF, size: 0x8, addend: 0x0, symName: __ZNSt3__1eqB8ue170006IPcEEbRKNS_11__wrap_iterIT_EES6_, symObjAddr: 0x15FE8, symBinAddr: 0x100018FD4, symSize: 0x48 }
  - { offsetInCU: 0x14760, offset: 0x14760, size: 0x8, addend: 0x0, symName: __ZNSt3__117__libcpp_allocateB8ue170006Emm, symObjAddr: 0x177CC, symBinAddr: 0x10001A7B8, symSize: 0x60 }
  - { offsetInCU: 0x149A6, offset: 0x149A6, size: 0x8, addend: 0x0, symName: __ZNSt3__124__is_overaligned_for_newB8ue170006Em, symObjAddr: 0x17848, symBinAddr: 0x10001A834, symSize: 0x20 }
  - { offsetInCU: 0x149D4, offset: 0x149D4, size: 0x8, addend: 0x0, symName: __ZNSt3__121__libcpp_operator_newB8ue170006IJmSt11align_val_tEEEPvDpT_, symObjAddr: 0x17868, symBinAddr: 0x10001A854, symSize: 0x2C }
  - { offsetInCU: 0x14A21, offset: 0x14A21, size: 0x8, addend: 0x0, symName: __ZNSt3__121__libcpp_operator_newB8ue170006IJmEEEPvDpT_, symObjAddr: 0x17894, symBinAddr: 0x10001A880, symSize: 0x24 }
  - { offsetInCU: 0x14A7F, offset: 0x14A7F, size: 0x8, addend: 0x0, symName: __ZNSt3__112construct_atB8ue170006INS_12basic_stringIcNS_11char_traitsIcEENS_9allocatorIcEEEEJRKS6_EPS6_EEPT_SB_DpOT0_, symObjAddr: 0x17D30, symBinAddr: 0x10001AD1C, symSize: 0x3C }
  - { offsetInCU: 0x14AEF, offset: 0x14AEF, size: 0x8, addend: 0x0, symName: __ZNSt3__1ltB8ue170006ENS_15strong_orderingENS_20_CmpUnspecifiedParamE, symObjAddr: 0x18184, symBinAddr: 0x10001B170, symSize: 0x274 }
  - { offsetInCU: 0x14B2D, offset: 0x14B2D, size: 0x8, addend: 0x0, symName: __ZNSt3__1ssB8ue170006IcNS_11char_traitsIcEENS_9allocatorIcEEEEDaRKNS_12basic_stringIT_T0_T1_EESC_, symObjAddr: 0x183F8, symBinAddr: 0x10001B3E4, symSize: 0x3AC }
  - { offsetInCU: 0x14BA3, offset: 0x14BA3, size: 0x8, addend: 0x0, symName: __ZNSt3__1ssB8ue170006IcNS_11char_traitsIcEEEEDaNS_17basic_string_viewIT_T0_EES7_, symObjAddr: 0x187D8, symBinAddr: 0x10001B7C4, symSize: 0x3E8 }
  - { offsetInCU: 0x14BFA, offset: 0x14BFA, size: 0x8, addend: 0x0, symName: __ZNSt3__13minB8ue170006ImEERKT_S3_S3_, symObjAddr: 0x1921C, symBinAddr: 0x10001C208, symSize: 0x2C }
  - { offsetInCU: 0x14C3D, offset: 0x14C3D, size: 0x8, addend: 0x0, symName: __ZNSt3__13minB8ue170006ImNS_6__lessIvvEEEERKT_S5_S5_T0_, symObjAddr: 0x19340, symBinAddr: 0x10001C32C, symSize: 0x1E8 }
  - { offsetInCU: 0x14D44, offset: 0x14D44, size: 0x8, addend: 0x0, symName: __ZNSt3__112__to_addressB8ue170006IKcEEPT_S3_, symObjAddr: 0x19648, symBinAddr: 0x10001C634, symSize: 0x14 }
  - { offsetInCU: 0x14DAC, offset: 0x14DAC, size: 0x8, addend: 0x0, symName: __ZNSt3__127__tree_balance_after_insertB8ue170006IPNS_16__tree_node_baseIPvEEEEvT_S5_, symObjAddr: 0x19864, symBinAddr: 0x10001C850, symSize: 0x960 }
  - { offsetInCU: 0x14E20, offset: 0x14E20, size: 0x8, addend: 0x0, symName: __ZNSt3__120__tree_is_left_childB8ue170006IPNS_16__tree_node_baseIPvEEEEbT_, symObjAddr: 0x1A250, symBinAddr: 0x10001D23C, symSize: 0xB8 }
  - { offsetInCU: 0x14E55, offset: 0x14E55, size: 0x8, addend: 0x0, symName: __ZNSt3__118__tree_left_rotateB8ue170006IPNS_16__tree_node_baseIPvEEEEvT_, symObjAddr: 0x1A308, symBinAddr: 0x10001D2F4, symSize: 0x374 }
  - { offsetInCU: 0x14E97, offset: 0x14E97, size: 0x8, addend: 0x0, symName: __ZNSt3__119__tree_right_rotateB8ue170006IPNS_16__tree_node_baseIPvEEEEvT_, symObjAddr: 0x1A67C, symBinAddr: 0x10001D668, symSize: 0x354 }
  - { offsetInCU: 0x14ED9, offset: 0x14ED9, size: 0x8, addend: 0x0, symName: __ZNSt3__110destroy_atB8ue170006INS_12basic_stringIcNS_11char_traitsIcEENS_9allocatorIcEEEELi0EEEvPT_, symObjAddr: 0x1ADFC, symBinAddr: 0x10001DDE8, symSize: 0x24 }
  - { offsetInCU: 0x14F10, offset: 0x14F10, size: 0x8, addend: 0x0, symName: __ZNSt3__112__destroy_atB8ue170006INS_12basic_stringIcNS_11char_traitsIcEENS_9allocatorIcEEEELi0EEEvPT_, symObjAddr: 0x1AE20, symBinAddr: 0x10001DE0C, symSize: 0x24 }
  - { offsetInCU: 0x14F47, offset: 0x14F47, size: 0x8, addend: 0x0, symName: __ZNSt3__119__libcpp_deallocateB8ue170006EPvmm, symObjAddr: 0x1AE94, symBinAddr: 0x10001DE80, symSize: 0x60 }
  - { offsetInCU: 0x14FAC, offset: 0x14FAC, size: 0x8, addend: 0x0, symName: __ZNSt3__127__do_deallocate_handle_sizeB8ue170006IJSt11align_val_tEEEvPvmDpT_, symObjAddr: 0x1AEF4, symBinAddr: 0x10001DEE0, symSize: 0x30 }
  - { offsetInCU: 0x14FFF, offset: 0x14FFF, size: 0x8, addend: 0x0, symName: __ZNSt3__127__do_deallocate_handle_sizeB8ue170006IJEEEvPvmDpT_, symObjAddr: 0x1AF24, symBinAddr: 0x10001DF10, symSize: 0x28 }
  - { offsetInCU: 0x1503D, offset: 0x1503D, size: 0x8, addend: 0x0, symName: __ZNSt3__124__libcpp_operator_deleteB8ue170006IJPvSt11align_val_tEEEvDpT_, symObjAddr: 0x1AF4C, symBinAddr: 0x10001DF38, symSize: 0x2C }
  - { offsetInCU: 0x15086, offset: 0x15086, size: 0x8, addend: 0x0, symName: __ZNSt3__124__libcpp_operator_deleteB8ue170006IJPvEEEvDpT_, symObjAddr: 0x1AF78, symBinAddr: 0x10001DF64, symSize: 0x24 }
  - { offsetInCU: 0x150BB, offset: 0x150BB, size: 0x8, addend: 0x0, symName: __ZNSt3__112__to_addressB8ue170006INS_12basic_stringIcNS_11char_traitsIcEENS_9allocatorIcEEEEEEPT_S8_, symObjAddr: 0x1BA2C, symBinAddr: 0x10001EA18, symSize: 0x14 }
  - { offsetInCU: 0x150F0, offset: 0x150F0, size: 0x8, addend: 0x0, symName: __ZNSt3__13maxB8ue170006ImEERKT_S3_S3_, symObjAddr: 0x1CFD4, symBinAddr: 0x10001FFC0, symSize: 0x2C }
  - { offsetInCU: 0x1531D, offset: 0x1531D, size: 0x8, addend: 0x0, symName: __ZNSt3__120__throw_length_errorB8ue170006EPKc, symObjAddr: 0x1D0A4, symBinAddr: 0x100020090, symSize: 0x68 }
  - { offsetInCU: 0x15347, offset: 0x15347, size: 0x8, addend: 0x0, symName: __ZNSt3__13maxB8ue170006ImNS_6__lessIvvEEEERKT_S5_S5_T0_, symObjAddr: 0x1D1CC, symBinAddr: 0x1000201B8, symSize: 0x1E8 }
  - { offsetInCU: 0x153A7, offset: 0x153A7, size: 0x8, addend: 0x0, symName: __ZNSt3__119__allocate_at_leastB8ue170006INS_9allocatorINS_12basic_stringIcNS_11char_traitsIcEENS1_IcEEEEEEEENS_19__allocation_resultINS_16allocator_traitsIT_E7pointerEEERSA_m, symObjAddr: 0x1D920, symBinAddr: 0x10002090C, symSize: 0x28C }
  - { offsetInCU: 0x153EC, offset: 0x153EC, size: 0x8, addend: 0x0, symName: __ZNSt3__142__uninitialized_allocator_move_if_noexceptB8ue170006INS_9allocatorINS_12basic_stringIcNS_11char_traitsIcEENS1_IcEEEEEENS_16reverse_iteratorIPS6_EESA_SA_EET2_RT_T0_T1_SB_, symObjAddr: 0x1DEA8, symBinAddr: 0x100020E94, symSize: 0x544 }
  - { offsetInCU: 0x154A1, offset: 0x154A1, size: 0x8, addend: 0x0, symName: __ZNSt3__14swapB8ue170006IPNS_12basic_stringIcNS_11char_traitsIcEENS_9allocatorIcEEEEEENS_9enable_ifIXaasr21is_move_constructibleIT_EE5valuesr18is_move_assignableIS9_EE5valueEvE4typeERS9_SC_, symObjAddr: 0x1E484, symBinAddr: 0x100021470, symSize: 0x134 }
  - { offsetInCU: 0x154F2, offset: 0x154F2, size: 0x8, addend: 0x0, symName: __ZNSt3__122__make_exception_guardB8ue170006INS_29_AllocatorDestroyRangeReverseINS_9allocatorINS_12basic_stringIcNS_11char_traitsIcEENS2_IcEEEEEENS_16reverse_iteratorIPS7_EEEEEENS_28__exception_guard_exceptionsIT_EESE_, symObjAddr: 0x1E694, symBinAddr: 0x100021680, symSize: 0x1F8 }
  - { offsetInCU: 0x15529, offset: 0x15529, size: 0x8, addend: 0x0, symName: __ZNSt3__1neB8ue170006IPNS_12basic_stringIcNS_11char_traitsIcEENS_9allocatorIcEEEES7_EEbRKNS_16reverse_iteratorIT_EERKNS8_IT0_EE, symObjAddr: 0x1E8D0, symBinAddr: 0x1000218BC, symSize: 0x48 }
  - { offsetInCU: 0x15575, offset: 0x15575, size: 0x8, addend: 0x0, symName: __ZNSt3__112__to_addressB8ue170006INS_16reverse_iteratorIPNS_12basic_stringIcNS_11char_traitsIcEENS_9allocatorIcEEEEEEvEEu7__decayIDTclsr19__to_address_helperIT_EE6__callclsr3stdE7declvalIRKSA_EEEEESC_, symObjAddr: 0x1E948, symBinAddr: 0x100021934, symSize: 0x24 }
  - { offsetInCU: 0x155AB, offset: 0x155AB, size: 0x8, addend: 0x0, symName: __ZNSt3__112construct_atB8ue170006INS_12basic_stringIcNS_11char_traitsIcEENS_9allocatorIcEEEEJS6_EPS6_EEPT_S9_DpOT0_, symObjAddr: 0x1ECE0, symBinAddr: 0x100021CCC, symSize: 0x3C }
  - { offsetInCU: 0x15644, offset: 0x15644, size: 0x8, addend: 0x0, symName: __ZNSt3__14prevB8ue170006IPNS_12basic_stringIcNS_11char_traitsIcEENS_9allocatorIcEEEEEENS_9enable_ifIXsr29__has_input_iterator_categoryIT_EE5valueES9_E4typeES9_NS_15iterator_traitsIS9_E15difference_typeE, symObjAddr: 0x1EE40, symBinAddr: 0x100021E2C, symSize: 0x240 }
  - { offsetInCU: 0x1568C, offset: 0x1568C, size: 0x8, addend: 0x0, symName: __ZNSt3__121__convert_to_integralB8ue170006El, symObjAddr: 0x1F0B8, symBinAddr: 0x1000220A4, symSize: 0x14 }
  - { offsetInCU: 0x156B8, offset: 0x156B8, size: 0x8, addend: 0x0, symName: __ZNSt3__19__advanceB8ue170006IPNS_12basic_stringIcNS_11char_traitsIcEENS_9allocatorIcEEEEEEvRT_NS_15iterator_traitsIS8_E15difference_typeENS_26random_access_iterator_tagE, symObjAddr: 0x1F0CC, symBinAddr: 0x1000220B8, symSize: 0x80 }
  - { offsetInCU: 0x15702, offset: 0x15702, size: 0x8, addend: 0x0, symName: __ZNSt3__119__allocator_destroyB8ue170006INS_9allocatorINS_12basic_stringIcNS_11char_traitsIcEENS1_IcEEEEEENS_16reverse_iteratorINS8_IPS6_EEEESB_EEvRT_T0_T1_, symObjAddr: 0x1F5B0, symBinAddr: 0x10002259C, symSize: 0x70 }
  - { offsetInCU: 0x15767, offset: 0x15767, size: 0x8, addend: 0x0, symName: __ZNSt3__1neB8ue170006INS_16reverse_iteratorIPNS_12basic_stringIcNS_11char_traitsIcEENS_9allocatorIcEEEEEES9_EEbRKNS1_IT_EERKNS1_IT0_EE, symObjAddr: 0x1F868, symBinAddr: 0x100022854, symSize: 0x2CC }
  - { offsetInCU: 0x157B5, offset: 0x157B5, size: 0x8, addend: 0x0, symName: __ZNSt3__112__to_addressB8ue170006INS_16reverse_iteratorINS1_IPNS_12basic_stringIcNS_11char_traitsIcEENS_9allocatorIcEEEEEEEEvEEu7__decayIDTclsr19__to_address_helperIT_EE6__callclsr3stdE7declvalIRKSB_EEEEESD_, symObjAddr: 0x1FB5C, symBinAddr: 0x100022B48, symSize: 0x24 }
  - { offsetInCU: 0x15814, offset: 0x15814, size: 0x8, addend: 0x0, symName: __ZNSt3__14prevB8ue170006INS_16reverse_iteratorIPNS_12basic_stringIcNS_11char_traitsIcEENS_9allocatorIcEEEEEEEENS_9enable_ifIXsr29__has_input_iterator_categoryIT_EE5valueESB_E4typeESB_NS_15iterator_traitsISB_E15difference_typeE, symObjAddr: 0x200A0, symBinAddr: 0x10002308C, symSize: 0x294 }
  - { offsetInCU: 0x1585C, offset: 0x1585C, size: 0x8, addend: 0x0, symName: __ZNSt3__19__advanceB8ue170006INS_16reverse_iteratorIPNS_12basic_stringIcNS_11char_traitsIcEENS_9allocatorIcEEEEEEEEvRT_NS_15iterator_traitsISA_E15difference_typeENS_26random_access_iterator_tagE, symObjAddr: 0x2036C, symBinAddr: 0x100023358, symSize: 0x2C }
  - { offsetInCU: 0x158A6, offset: 0x158A6, size: 0x8, addend: 0x0, symName: __ZNSt3__14sortB8ue170006INS_11__wrap_iterIPNS_12basic_stringIcNS_11char_traitsIcEENS_9allocatorIcEEEEEENS_6__lessIvvEEEEvT_SC_T0_, symObjAddr: 0x20E40, symBinAddr: 0x100023E2C, symSize: 0x36C }
  - { offsetInCU: 0x1590C, offset: 0x1590C, size: 0x8, addend: 0x0, symName: __ZNSt3__111__sort_implB8ue170006INS_17_ClassicAlgPolicyENS_11__wrap_iterIPNS_12basic_stringIcNS_11char_traitsIcEENS_9allocatorIcEEEEEENS_6__lessIvvEEEEvT0_SD_RT1_, symObjAddr: 0x211AC, symBinAddr: 0x100024198, symSize: 0x4D0 }
  - { offsetInCU: 0x15978, offset: 0x15978, size: 0x8, addend: 0x0, symName: __ZNSt3__123__debug_randomize_rangeB8ue170006INS_17_ClassicAlgPolicyENS_11__wrap_iterIPNS_12basic_stringIcNS_11char_traitsIcEENS_9allocatorIcEEEEEESA_EEvT0_T1_, symObjAddr: 0x2167C, symBinAddr: 0x100024668, symSize: 0x264 }
  - { offsetInCU: 0x159D1, offset: 0x159D1, size: 0x8, addend: 0x0, symName: __ZNSt3__115__sort_dispatchB8ue170006INS_17_ClassicAlgPolicyEPNS_12basic_stringIcNS_11char_traitsIcEENS_9allocatorIcEEEENS_6__lessIvvEEEEvT0_SB_RT1_, symObjAddr: 0x218E0, symBinAddr: 0x1000248CC, symSize: 0x64 }
  - { offsetInCU: 0x15A4F, offset: 0x15A4F, size: 0x8, addend: 0x0, symName: __ZNSt3__113__unwrap_iterB8ue170006INS_11__wrap_iterIPNS_12basic_stringIcNS_11char_traitsIcEENS_9allocatorIcEEEEEENS_18__unwrap_iter_implIS9_Lb1EEELi0EEEDTclsrT0_8__unwrapclsr3stdE7declvalIT_EEEESD_, symObjAddr: 0x21944, symBinAddr: 0x100024930, symSize: 0x274 }
  - { offsetInCU: 0x15A98, offset: 0x15A98, size: 0x8, addend: 0x0, symName: __ZNSt3__135__check_strict_weak_ordering_sortedB8ue170006IPNS_12basic_stringIcNS_11char_traitsIcEENS_9allocatorIcEEEENS_6__lessIvvEEEEvT_SA_RT0_, symObjAddr: 0x21BB8, symBinAddr: 0x100024BA4, symSize: 0x18 }
  - { offsetInCU: 0x15AEE, offset: 0x15AEE, size: 0x8, addend: 0x0, symName: __ZNSt3__17__log2iB8ue170006IlEET_S1_, symObjAddr: 0x21BD0, symBinAddr: 0x100024BBC, symSize: 0x54 }
  - { offsetInCU: 0x15B25, offset: 0x15B25, size: 0x8, addend: 0x0, symName: __ZNSt3__112__libcpp_clzB8ue170006Em, symObjAddr: 0x22E8C, symBinAddr: 0x100025E78, symSize: 0x1C }
  - { offsetInCU: 0x15C3B, offset: 0x15C3B, size: 0x8, addend: 0x0, symName: __ZNSt3__124__sort3_maybe_branchlessB8ue170006INS_17_ClassicAlgPolicyERNS_6__lessIvvEEPNS_12basic_stringIcNS_11char_traitsIcEENS_9allocatorIcEEEEEENS_9enable_ifIXntsr21__use_branchless_sortIT0_T1_EE5valueEvE4typeESE_SE_SE_SD_, symObjAddr: 0x23204, symBinAddr: 0x1000261F0, symSize: 0x3C }
  - { offsetInCU: 0x15CAC, offset: 0x15CAC, size: 0x8, addend: 0x0, symName: __ZNSt3__124__sort4_maybe_branchlessB8ue170006INS_17_ClassicAlgPolicyERNS_6__lessIvvEEPNS_12basic_stringIcNS_11char_traitsIcEENS_9allocatorIcEEEEEENS_9enable_ifIXntsr21__use_branchless_sortIT0_T1_EE5valueEvE4typeESE_SE_SE_SE_SD_, symObjAddr: 0x23240, symBinAddr: 0x10002622C, symSize: 0x44 }
  - { offsetInCU: 0x15D2B, offset: 0x15D2B, size: 0x8, addend: 0x0, symName: __ZNSt3__124__sort5_maybe_branchlessB8ue170006INS_17_ClassicAlgPolicyERNS_6__lessIvvEEPNS_12basic_stringIcNS_11char_traitsIcEENS_9allocatorIcEEEEEENS_9enable_ifIXntsr21__use_branchless_sortIT0_T1_EE5valueEvE4typeESE_SE_SE_SE_SE_SD_, symObjAddr: 0x23284, symBinAddr: 0x100026270, symSize: 0x4C }
  - { offsetInCU: 0x15DB8, offset: 0x15DB8, size: 0x8, addend: 0x0, symName: __ZNSt3__116__insertion_sortB8ue170006INS_17_ClassicAlgPolicyERNS_6__lessIvvEEPNS_12basic_stringIcNS_11char_traitsIcEENS_9allocatorIcEEEEEEvT1_SC_T0_, symObjAddr: 0x232D0, symBinAddr: 0x1000262BC, symSize: 0x670 }
  - { offsetInCU: 0x15E7C, offset: 0x15E7C, size: 0x8, addend: 0x0, symName: __ZNSt3__114__partial_sortB8ue170006INS_17_ClassicAlgPolicyERNS_6__lessIvvEEPNS_12basic_stringIcNS_11char_traitsIcEENS_9allocatorIcEEEESB_EET1_SC_SC_T2_RT0_, symObjAddr: 0x23F84, symBinAddr: 0x100026F70, symSize: 0x94 }
  - { offsetInCU: 0x15F04, offset: 0x15F04, size: 0x8, addend: 0x0, symName: __ZNSt3__17__sort3B8ue170006INS_17_ClassicAlgPolicyERNS_6__lessIvvEEPNS_12basic_stringIcNS_11char_traitsIcEENS_9allocatorIcEEEEEEjT1_SC_SC_T0_, symObjAddr: 0x24018, symBinAddr: 0x100027004, symSize: 0x66C }
  - { offsetInCU: 0x15F91, offset: 0x15F91, size: 0x8, addend: 0x0, symName: __ZNSt3__19iter_swapB8ue170006IPNS_12basic_stringIcNS_11char_traitsIcEENS_9allocatorIcEEEES7_EEvT_T0_, symObjAddr: 0x27B28, symBinAddr: 0x10002AB14, symSize: 0x2C }
  - { offsetInCU: 0x15FD9, offset: 0x15FD9, size: 0x8, addend: 0x0, symName: __ZNSt3__14swapB8ue170006IcNS_11char_traitsIcEENS_9allocatorIcEEEEvRNS_12basic_stringIT_T0_T1_EESA_, symObjAddr: 0x27B54, symBinAddr: 0x10002AB40, symSize: 0x2C }
  - { offsetInCU: 0x1602D, offset: 0x1602D, size: 0x8, addend: 0x0, symName: __ZNSt3__14swapB8ue170006INS_12basic_stringIcNS_11char_traitsIcEENS_9allocatorIcEEE5__repEEENS_9enable_ifIXaasr21is_move_constructibleIT_EE5valuesr18is_move_assignableIS9_EE5valueEvE4typeERS9_SC_, symObjAddr: 0x27BE4, symBinAddr: 0x10002ABD0, symSize: 0x234 }
  - { offsetInCU: 0x16084, offset: 0x16084, size: 0x8, addend: 0x0, symName: __ZNSt3__116__swap_allocatorB8ue170006INS_9allocatorIcEEEEvRT_S4_, symObjAddr: 0x27E18, symBinAddr: 0x10002AE04, symSize: 0x2C }
  - { offsetInCU: 0x160C4, offset: 0x160C4, size: 0x8, addend: 0x0, symName: __ZNSt3__116__swap_allocatorB8ue170006INS_9allocatorIcEEEEvRT_S4_NS_17integral_constantIbLb0EEE, symObjAddr: 0x27E68, symBinAddr: 0x10002AE54, symSize: 0x14 }
  - { offsetInCU: 0x16108, offset: 0x16108, size: 0x8, addend: 0x0, symName: __ZNSt3__17__sort4B8ue170006INS_17_ClassicAlgPolicyERNS_6__lessIvvEEPNS_12basic_stringIcNS_11char_traitsIcEENS_9allocatorIcEEEEEEvT1_SC_SC_SC_T0_, symObjAddr: 0x27EB4, symBinAddr: 0x10002AEA0, symSize: 0x5D4 }
  - { offsetInCU: 0x16195, offset: 0x16195, size: 0x8, addend: 0x0, symName: __ZNSt3__17__sort5B8ue170006INS_17_ClassicAlgPolicyERNS_6__lessIvvEEPNS_12basic_stringIcNS_11char_traitsIcEENS_9allocatorIcEEEEEEvT1_SC_SC_SC_SC_T0_, symObjAddr: 0x28488, symBinAddr: 0x10002B474, symSize: 0x714 }
  - { offsetInCU: 0x1625A, offset: 0x1625A, size: 0x8, addend: 0x0, symName: __ZNSt3__123__debug_randomize_rangeB8ue170006INS_17_ClassicAlgPolicyEPNS_12basic_stringIcNS_11char_traitsIcEENS_9allocatorIcEEEES8_EEvT0_T1_, symObjAddr: 0x29084, symBinAddr: 0x10002C070, symSize: 0x14 }
  - { offsetInCU: 0x162AB, offset: 0x162AB, size: 0x8, addend: 0x0, symName: __ZNSt3__119__partial_sort_implB8ue170006INS_17_ClassicAlgPolicyERNS_6__lessIvvEEPNS_12basic_stringIcNS_11char_traitsIcEENS_9allocatorIcEEEESB_EET1_SC_SC_T2_OT0_, symObjAddr: 0x29098, symBinAddr: 0x10002C084, symSize: 0x59C }
  - { offsetInCU: 0x1634D, offset: 0x1634D, size: 0x8, addend: 0x0, symName: __ZNSt3__111__make_heapB8ue170006INS_17_ClassicAlgPolicyERNS_6__lessIvvEEPNS_12basic_stringIcNS_11char_traitsIcEENS_9allocatorIcEEEEEEvT1_SC_OT0_, symObjAddr: 0x29634, symBinAddr: 0x10002C620, symSize: 0xC4 }
  - { offsetInCU: 0x163EF, offset: 0x163EF, size: 0x8, addend: 0x0, symName: __ZNSt3__111__sort_heapB8ue170006INS_17_ClassicAlgPolicyERNS_6__lessIvvEEPNS_12basic_stringIcNS_11char_traitsIcEENS_9allocatorIcEEEEEEvT1_SC_OT0_, symObjAddr: 0x29FA0, symBinAddr: 0x10002CF8C, symSize: 0xAC }
  - { offsetInCU: 0x16491, offset: 0x16491, size: 0x8, addend: 0x0, symName: __ZNSt3__110__pop_heapB8ue170006INS_17_ClassicAlgPolicyENS_6__lessIvvEEPNS_12basic_stringIcNS_11char_traitsIcEENS_9allocatorIcEEEEEEvT1_SB_RT0_NS_15iterator_traitsISB_E15difference_typeE, symObjAddr: 0x2A04C, symBinAddr: 0x10002D038, symSize: 0x578 }
  - { offsetInCU: 0x16549, offset: 0x16549, size: 0x8, addend: 0x0, symName: __ZNSt3__19__sift_upB8ue170006INS_17_ClassicAlgPolicyERNS_6__lessIvvEEPNS_12basic_stringIcNS_11char_traitsIcEENS_9allocatorIcEEEEEEvT1_SC_OT0_NS_15iterator_traitsISC_E15difference_typeE, symObjAddr: 0x2A998, symBinAddr: 0x10002D984, symSize: 0x66C }
  - { offsetInCU: 0x165F8, offset: 0x165F8, size: 0x8, addend: 0x0, symName: __ZNSt3__122__populate_left_bitsetB8ue170006IRNS_6__lessIvvEEPNS_12basic_stringIcNS_11char_traitsIcEENS_9allocatorIcEEEES9_EEvT0_T_RT1_Ry, symObjAddr: 0x2B004, symBinAddr: 0x10002DFF0, symSize: 0xF8 }
  - { offsetInCU: 0x166B3, offset: 0x166B3, size: 0x8, addend: 0x0, symName: __ZNSt3__123__populate_right_bitsetB8ue170006IRNS_6__lessIvvEEPNS_12basic_stringIcNS_11char_traitsIcEENS_9allocatorIcEEEES9_EEvT0_T_RT1_Ry, symObjAddr: 0x2B0FC, symBinAddr: 0x10002E0E8, symSize: 0xF4 }
  - { offsetInCU: 0x1676E, offset: 0x1676E, size: 0x8, addend: 0x0, symName: __ZNSt3__117__swap_bitmap_posB8ue170006INS_17_ClassicAlgPolicyEPNS_12basic_stringIcNS_11char_traitsIcEENS_9allocatorIcEEEEEEvT0_S9_RySA_, symObjAddr: 0x2B1F0, symBinAddr: 0x10002E1DC, symSize: 0x520 }
  - { offsetInCU: 0x16815, offset: 0x16815, size: 0x8, addend: 0x0, symName: __ZNSt3__133__bitset_partition_partial_blocksB8ue170006INS_17_ClassicAlgPolicyERNS_6__lessIvvEEPNS_12basic_stringIcNS_11char_traitsIcEENS_9allocatorIcEEEESA_EEvRT1_SD_T0_RT2_RySH_, symObjAddr: 0x2B710, symBinAddr: 0x10002E6FC, symSize: 0x6B4 }
  - { offsetInCU: 0x1699E, offset: 0x1699E, size: 0x8, addend: 0x0, symName: __ZNSt3__19make_pairB8ue170006IRPNS_12basic_stringIcNS_11char_traitsIcEENS_9allocatorIcEEEERbEENS_4pairINS_18__unwrap_ref_decayIT_E4typeENSB_IT0_E4typeEEEOSC_OSF_, symObjAddr: 0x2C584, symBinAddr: 0x10002F570, symSize: 0x20C }
  - { offsetInCU: 0x169EF, offset: 0x169EF, size: 0x8, addend: 0x0, symName: __ZNSt3__112__libcpp_ctzB8ue170006Ey, symObjAddr: 0x2C790, symBinAddr: 0x10002F77C, symSize: 0x20 }
  - { offsetInCU: 0x16A1B, offset: 0x16A1B, size: 0x8, addend: 0x0, symName: __ZNSt3__113__libcpp_blsrB8ue170006Ey, symObjAddr: 0x2C7B0, symBinAddr: 0x10002F79C, symSize: 0x2C }
  - { offsetInCU: 0x16A47, offset: 0x16A47, size: 0x8, addend: 0x0, symName: __ZNSt3__112__libcpp_clzB8ue170006Ey, symObjAddr: 0x2C88C, symBinAddr: 0x10002F878, symSize: 0x1C }
  - { offsetInCU: 0x16B9A, offset: 0x16B9A, size: 0x8, addend: 0x0, symName: __ZNSt3__112__to_addressB8ue170006INS_11__wrap_iterIPNS_12basic_stringIcNS_11char_traitsIcEENS_9allocatorIcEEEEEEvEEu7__decayIDTclsr19__to_address_helperIT_EE6__callclsr3stdE7declvalIRKSA_EEEEESC_, symObjAddr: 0x2CC5C, symBinAddr: 0x10002FC48, symSize: 0x24 }
  - { offsetInCU: 0x16C37, offset: 0x16C37, size: 0x8, addend: 0x0, symName: __ZNSt3__1eqB8ue170006INS_9allocatorIcEEEEbRKNS_12basic_stringIcNS_11char_traitsIcEET_EES9_, symObjAddr: 0x2DB6C, symBinAddr: 0x100030B58, symSize: 0x234 }
  - { offsetInCU: 0x16CAA, offset: 0x16CAA, size: 0x8, addend: 0x0, symName: __ZNSt3__1eqB8ue170006INS_12basic_stringIcNS_11char_traitsIcEENS_9allocatorIcEEEENS_4lessIS6_EENS4_IS6_EEEEbRKNS_8multisetIT_T0_T1_EESG_, symObjAddr: 0x2E098, symBinAddr: 0x100031084, symSize: 0x3F8 }
  - { offsetInCU: 0x16D04, offset: 0x16D04, size: 0x8, addend: 0x0, symName: __ZNSt3__1eqB8ue170006INS_12basic_stringIcNS_11char_traitsIcEENS_9allocatorIcEEEENS4_IS6_EEEEbRKNS_6vectorIT_T0_EESD_, symObjAddr: 0x2E490, symBinAddr: 0x10003147C, symSize: 0x3FC }
  - { offsetInCU: 0x16D65, offset: 0x16D65, size: 0x8, addend: 0x0, symName: __ZNSt3__15equalB8ue170006INS_21__tree_const_iteratorINS_12basic_stringIcNS_11char_traitsIcEENS_9allocatorIcEEEEPNS_11__tree_nodeIS7_PvEElEESC_EEbT_SD_T0_, symObjAddr: 0x2E8F8, symBinAddr: 0x1000318E4, symSize: 0x40C }
  - { offsetInCU: 0x16DCB, offset: 0x16DCB, size: 0x8, addend: 0x0, symName: __ZNSt3__15equalB8ue170006INS_21__tree_const_iteratorINS_12basic_stringIcNS_11char_traitsIcEENS_9allocatorIcEEEEPNS_11__tree_nodeIS7_PvEElEESC_NS_10__equal_toEEEbT_SE_T0_T1_, symObjAddr: 0x2F1CC, symBinAddr: 0x1000321B8, symSize: 0x5B4 }
  - { offsetInCU: 0x16E4D, offset: 0x16E4D, size: 0x8, addend: 0x0, symName: __ZNSt3__117__equal_iter_implB8ue170006INS_21__tree_const_iteratorINS_12basic_stringIcNS_11char_traitsIcEENS_9allocatorIcEEEEPNS_11__tree_nodeIS7_PvEElEESC_NS_10__equal_toEEEbT_SE_T0_RT1_, symObjAddr: 0x2F780, symBinAddr: 0x10003276C, symSize: 0x374 }
  - { offsetInCU: 0x16ECB, offset: 0x16ECB, size: 0x8, addend: 0x0, symName: __ZNSt3__113__unwrap_iterB8ue170006INS_21__tree_const_iteratorINS_12basic_stringIcNS_11char_traitsIcEENS_9allocatorIcEEEEPNS_11__tree_nodeIS7_PvEElEENS_18__unwrap_iter_implISC_Lb0EEELi0EEEDTclsrT0_8__unwrapclsr3stdE7declvalIT_EEEESG_, symObjAddr: 0x2FAF4, symBinAddr: 0x100032AE0, symSize: 0x30C }
  - { offsetInCU: 0x16FC7, offset: 0x16FC7, size: 0x8, addend: 0x0, symName: __ZNSt3__15equalB8ue170006INS_11__wrap_iterIPKNS_12basic_stringIcNS_11char_traitsIcEENS_9allocatorIcEEEEEESA_EEbT_SB_T0_, symObjAddr: 0x30598, symBinAddr: 0x100033584, symSize: 0x40C }
  - { offsetInCU: 0x1702D, offset: 0x1702D, size: 0x8, addend: 0x0, symName: __ZNSt3__15equalB8ue170006INS_11__wrap_iterIPKNS_12basic_stringIcNS_11char_traitsIcEENS_9allocatorIcEEEEEESA_NS_10__equal_toEEEbT_SC_T0_T1_, symObjAddr: 0x30E78, symBinAddr: 0x100033E64, symSize: 0x44C }
  - { offsetInCU: 0x170AF, offset: 0x170AF, size: 0x8, addend: 0x0, symName: __ZNSt3__117__equal_iter_implB8ue170006IPKNS_12basic_stringIcNS_11char_traitsIcEENS_9allocatorIcEEEES8_NS_10__equal_toEEEbT_SA_T0_RT1_, symObjAddr: 0x312C4, symBinAddr: 0x1000342B0, symSize: 0xAC }
  - { offsetInCU: 0x17120, offset: 0x17120, size: 0x8, addend: 0x0, symName: __ZNSt3__113__unwrap_iterB8ue170006INS_11__wrap_iterIPKNS_12basic_stringIcNS_11char_traitsIcEENS_9allocatorIcEEEEEENS_18__unwrap_iter_implISA_Lb1EEELi0EEEDTclsrT0_8__unwrapclsr3stdE7declvalIT_EEEESE_, symObjAddr: 0x31370, symBinAddr: 0x10003435C, symSize: 0x274 }
  - { offsetInCU: 0x171BB, offset: 0x171BB, size: 0x8, addend: 0x0, symName: __ZNSt3__112__to_addressB8ue170006INS_11__wrap_iterIPKNS_12basic_stringIcNS_11char_traitsIcEENS_9allocatorIcEEEEEEvEEu7__decayIDTclsr19__to_address_helperIT_EE6__callclsr3stdE7declvalIRKSB_EEEEESD_, symObjAddr: 0x317D4, symBinAddr: 0x1000347C0, symSize: 0x24 }
  - { offsetInCU: 0x17296, offset: 0x17296, size: 0x8, addend: 0x0, symName: __ZNSt3__112__to_addressB8ue170006IKNS_12basic_stringIcNS_11char_traitsIcEENS_9allocatorIcEEEEEEPT_S9_, symObjAddr: 0x31BEC, symBinAddr: 0x100034BD8, symSize: 0x14 }
  - { offsetInCU: 0x172CB, offset: 0x172CB, size: 0x8, addend: 0x0, symName: __ZNSt3__13getB8ue170006ILm0ENS_14__map_iteratorINS_15__tree_iteratorINS_12__value_typeI8CStudentNS_15__list_iteratorIS4_PvEEEEPNS_11__tree_nodeIS8_S6_EElEEEEbEEONS_13tuple_elementIXT_ENS_4pairIT0_T1_EEE4typeEOSI_, symObjAddr: 0x32488, symBinAddr: 0x100035474, symSize: 0x24 }
  - { offsetInCU: 0x17315, offset: 0x17315, size: 0x8, addend: 0x0, symName: __ZNSt3__13getB8ue170006ILm1ENS_14__map_iteratorINS_15__tree_iteratorINS_12__value_typeI8CStudentNS_15__list_iteratorIS4_PvEEEEPNS_11__tree_nodeIS8_S6_EElEEEEbEEONS_13tuple_elementIXT_ENS_4pairIT0_T1_EEE4typeEOSI_, symObjAddr: 0x324AC, symBinAddr: 0x100035498, symSize: 0x24 }
  - { offsetInCU: 0x1735F, offset: 0x1735F, size: 0x8, addend: 0x0, symName: __ZNSt3__14prevB8ue170006INS_15__list_iteratorI8CStudentPvEEEENS_9enable_ifIXsr29__has_input_iterator_categoryIT_EE5valueES6_E4typeES6_NS_15iterator_traitsIS6_E15difference_typeE, symObjAddr: 0x32868, symBinAddr: 0x100035854, symSize: 0x290 }
  - { offsetInCU: 0x173CB, offset: 0x173CB, size: 0x8, addend: 0x0, symName: __ZNSt3__1eqB8ue170006ENS_15strong_orderingENS_20_CmpUnspecifiedParamE, symObjAddr: 0x34EB8, symBinAddr: 0x100037EA4, symSize: 0x274 }
  - { offsetInCU: 0x17407, offset: 0x17407, size: 0x8, addend: 0x0, symName: __ZNSt3__1ssB8ue170006INS_12basic_stringIcNS_11char_traitsIcEENS_9allocatorIcEEEENS_4lessIS6_EEEEDTclsr3stdE17__synth_three_wayclsr3stdE7declvalIRT_EEclsr3stdE7declvalISA_EEEERKNS_8multisetIS9_T0_NS4_IS9_EEEESH_, symObjAddr: 0x35AD4, symBinAddr: 0x100038AC0, symSize: 0x51C }
  - { offsetInCU: 0x17458, offset: 0x17458, size: 0x8, addend: 0x0, symName: __ZNSt3__1ssB8ue170006INS_12basic_stringIcNS_11char_traitsIcEENS_9allocatorIcEEEENS4_IS6_EEEEDTclsr3stdE17__synth_three_wayclsr3stdE7declvalIRT_EEclsr3stdE7declvalIS9_EEEERKNS_6vectorIS8_T0_EESF_, symObjAddr: 0x35FF0, symBinAddr: 0x100038FDC, symSize: 0x51C }
  - { offsetInCU: 0x174A9, offset: 0x174A9, size: 0x8, addend: 0x0, symName: __ZNSt3__133lexicographical_compare_three_wayB8ue170006INS_21__tree_const_iteratorINS_12basic_stringIcNS_11char_traitsIcEENS_9allocatorIcEEEEPNS_11__tree_nodeIS7_PvEElEESC_PFNS_15strong_orderingERKS7_SF_EEEDTclfp3_defp_defp1_EET_SJ_T0_SK_T1_, symObjAddr: 0x3650C, symBinAddr: 0x1000394F8, symSize: 0x5B4 }
  - { offsetInCU: 0x1754D, offset: 0x1754D, size: 0x8, addend: 0x0, symName: __ZNSt3__117__synth_three_wayB8ue170006INS_12basic_stringIcNS_11char_traitsIcEENS_9allocatorIcEEEES6_EEDaRKT_RKT0_, symObjAddr: 0x36AC0, symBinAddr: 0x100039AAC, symSize: 0x284 }
  - { offsetInCU: 0x1759B, offset: 0x1759B, size: 0x8, addend: 0x0, symName: __ZNSt3__145__lexicographical_compare_three_way_slow_pathB8ue170006INS_21__tree_const_iteratorINS_12basic_stringIcNS_11char_traitsIcEENS_9allocatorIcEEEEPNS_11__tree_nodeIS7_PvEElEESC_PFNS_15strong_orderingERKS7_SF_EEEDTclfp3_defp_defp1_EET_SJ_T0_SK_RT1_, symObjAddr: 0x36D44, symBinAddr: 0x100039D30, symSize: 0x61C }
  - { offsetInCU: 0x1766A, offset: 0x1766A, size: 0x8, addend: 0x0, symName: __ZNSt3__1eqB8ue170006ERKNS_21__tree_const_iteratorINS_12basic_stringIcNS_11char_traitsIcEENS_9allocatorIcEEEEPNS_11__tree_nodeIS6_PvEElEESD_, symObjAddr: 0x37360, symBinAddr: 0x10003A34C, symSize: 0xB8 }
  - { offsetInCU: 0x176A7, offset: 0x176A7, size: 0x8, addend: 0x0, symName: __ZNSt3__133lexicographical_compare_three_wayB8ue170006INS_11__wrap_iterIPKNS_12basic_stringIcNS_11char_traitsIcEENS_9allocatorIcEEEEEESA_PFNS_15strong_orderingERS8_SC_EEEDTclfp3_defp_defp1_EET_SG_T0_SH_T1_, symObjAddr: 0x37418, symBinAddr: 0x10003A404, symSize: 0x5B4 }
  - { offsetInCU: 0x1774B, offset: 0x1774B, size: 0x8, addend: 0x0, symName: __ZNSt3__145__lexicographical_compare_three_way_fast_pathB8ue170006INS_11__wrap_iterIPKNS_12basic_stringIcNS_11char_traitsIcEENS_9allocatorIcEEEEEESA_PFNS_15strong_orderingERS8_SC_EEEDTclfp3_defp_defp1_EET_SG_T0_SH_RT1_, symObjAddr: 0x379CC, symBinAddr: 0x10003A9B8, symSize: 0x7A8 }
  - { offsetInCU: 0x1786F, offset: 0x1786F, size: 0x8, addend: 0x0, symName: __ZNSt3__1miB8ue170006IPKNS_12basic_stringIcNS_11char_traitsIcEENS_9allocatorIcEEEES8_EEDTmicldtfp_4baseEcldtfp0_4baseEERKNS_11__wrap_iterIT_EERKNSA_IT0_EE, symObjAddr: 0x38174, symBinAddr: 0x10003B160, symSize: 0x48 }
  - { offsetInCU: 0x178BB, offset: 0x178BB, size: 0x8, addend: 0x0, symName: __ZNSt3__13minB8ue170006IlEERKT_S3_S3_, symObjAddr: 0x381BC, symBinAddr: 0x10003B1A8, symSize: 0x2C }
  - { offsetInCU: 0x178FE, offset: 0x178FE, size: 0x8, addend: 0x0, symName: __ZNSt3__13minB8ue170006IlNS_6__lessIvvEEEERKT_S5_S5_T0_, symObjAddr: 0x382B0, symBinAddr: 0x10003B29C, symSize: 0x1E8 }
  - { offsetInCU: 0x1795E, offset: 0x1795E, size: 0x8, addend: 0x0, symName: __ZNSt3__17launderB8ue170006IKNS_4pairIK8CStudentNS_15__list_iteratorIS2_PvEEEEEEPT_SA_, symObjAddr: 0x38554, symBinAddr: 0x10003B540, symSize: 0x24 }
  - { offsetInCU: 0x17995, offset: 0x17995, size: 0x8, addend: 0x0, symName: __ZNSt3__19__launderB8ue170006IKNS_4pairIK8CStudentNS_15__list_iteratorIS2_PvEEEEEEPT_SA_, symObjAddr: 0x38578, symBinAddr: 0x10003B564, symSize: 0x14 }
  - { offsetInCU: 0x17A0F, offset: 0x17A0F, size: 0x8, addend: 0x0, symName: __ZNSt3__112construct_atB8ue170006INS_4pairIK8CStudentNS_15__list_iteratorIS2_PvEEEEJS7_EPS7_EEPT_SA_DpOT0_, symObjAddr: 0x38C7C, symBinAddr: 0x10003BC68, symSize: 0x3C }
  - { offsetInCU: 0x17A7F, offset: 0x17A7F, size: 0x8, addend: 0x0, symName: __ZNSt3__116__tree_prev_iterB8ue170006IPNS_16__tree_node_baseIPvEEPNS_15__tree_end_nodeIS4_EEEET_T0_, symObjAddr: 0x3B95C, symBinAddr: 0x10003E948, symSize: 0xFC }
  - { offsetInCU: 0x17ACB, offset: 0x17ACB, size: 0x8, addend: 0x0, symName: __ZNSt3__110__tree_maxB8ue170006IPNS_16__tree_node_baseIPvEEEET_S5_, symObjAddr: 0x3BA58, symBinAddr: 0x10003EA44, symSize: 0xCC }
  - { offsetInCU: 0x17B00, offset: 0x17B00, size: 0x8, addend: 0x0, symName: __ZNSt3__122__make_exception_guardB8ue170006INS_6vectorINS_12basic_stringIcNS_11char_traitsIcEENS_9allocatorIcEEEENS5_IS7_EEE16__destroy_vectorEEENS_28__exception_guard_exceptionsIT_EESC_, symObjAddr: 0x3C2A0, symBinAddr: 0x10003F28C, symSize: 0x278 }
  - { offsetInCU: 0x17B39, offset: 0x17B39, size: 0x8, addend: 0x0, symName: __ZNSt3__130__uninitialized_allocator_copyB8ue170006INS_9allocatorINS_12basic_stringIcNS_11char_traitsIcEENS1_IcEEEEEEPS6_S8_S8_EET2_RT_T0_T1_S9_, symObjAddr: 0x3D214, symBinAddr: 0x100040200, symSize: 0x2DC }
  - { offsetInCU: 0x17BDF, offset: 0x17BDF, size: 0x8, addend: 0x0, symName: __ZNSt3__114__unwrap_rangeB8ue170006IPNS_12basic_stringIcNS_11char_traitsIcEENS_9allocatorIcEEEES7_EEDaT_T0_, symObjAddr: 0x3D4F0, symBinAddr: 0x1000404DC, symSize: 0x224 }
  - { offsetInCU: 0x17C2D, offset: 0x17C2D, size: 0x8, addend: 0x0, symName: __ZNSt3__135__uninitialized_allocator_copy_implB8ue170006INS_9allocatorINS_12basic_stringIcNS_11char_traitsIcEENS1_IcEEEEEEPS6_S8_S8_EET2_RT_T0_T1_S9_, symObjAddr: 0x3D714, symBinAddr: 0x100040700, symSize: 0x520 }
  - { offsetInCU: 0x17CD9, offset: 0x17CD9, size: 0x8, addend: 0x0, symName: __ZNSt3__113__unwrap_iterB8ue170006IPNS_12basic_stringIcNS_11char_traitsIcEENS_9allocatorIcEEEENS_18__unwrap_iter_implIS7_Lb1EEELi0EEEDTclsrT0_8__unwrapclsr3stdE7declvalIT_EEEESB_, symObjAddr: 0x3DC34, symBinAddr: 0x100040C20, symSize: 0x24 }
  - { offsetInCU: 0x17D1D, offset: 0x17D1D, size: 0x8, addend: 0x0, symName: __ZNSt3__113__rewrap_iterB8ue170006IPNS_12basic_stringIcNS_11char_traitsIcEENS_9allocatorIcEEEES7_NS_18__unwrap_iter_implIS7_Lb1EEEEET_SA_T0_, symObjAddr: 0x3DC58, symBinAddr: 0x100040C44, symSize: 0x48 }
  - { offsetInCU: 0x17E74, offset: 0x17E74, size: 0x8, addend: 0x0, symName: __ZNSt3__122__make_exception_guardB8ue170006INS_29_AllocatorDestroyRangeReverseINS_9allocatorINS_12basic_stringIcNS_11char_traitsIcEENS2_IcEEEEEEPS7_EEEENS_28__exception_guard_exceptionsIT_EESC_, symObjAddr: 0x3E120, symBinAddr: 0x10004110C, symSize: 0x1F8 }
  - { offsetInCU: 0x17EAB, offset: 0x17EAB, size: 0x8, addend: 0x0, symName: __ZNSt3__112construct_atB8ue170006INS_12basic_stringIcNS_11char_traitsIcEENS_9allocatorIcEEEEJRS6_EPS6_EEPT_SA_DpOT0_, symObjAddr: 0x3E620, symBinAddr: 0x10004160C, symSize: 0x3C }
  - { offsetInCU: 0x17F1B, offset: 0x17F1B, size: 0x8, addend: 0x0, symName: __ZNSt3__119__allocator_destroyB8ue170006INS_9allocatorINS_12basic_stringIcNS_11char_traitsIcEENS1_IcEEEEEENS_16reverse_iteratorIPS6_EESA_EEvRT_T0_T1_, symObjAddr: 0x3EAB4, symBinAddr: 0x100041AA0, symSize: 0x2B8 }
  - { offsetInCU: 0x17FDA, offset: 0x17FDA, size: 0x8, addend: 0x0, symName: __ZNSt3__17launderB8ue170006INS_4pairIK8CStudentNS_15__list_iteratorIS2_PvEEEEEEPT_S9_, symObjAddr: 0x3EEB4, symBinAddr: 0x100041EA0, symSize: 0x24 }
  - { offsetInCU: 0x18011, offset: 0x18011, size: 0x8, addend: 0x0, symName: __ZNSt3__19__launderB8ue170006INS_4pairIK8CStudentNS_15__list_iteratorIS2_PvEEEEEEPT_S9_, symObjAddr: 0x3EED8, symBinAddr: 0x100041EC4, symSize: 0x14 }
  - { offsetInCU: 0x18048, offset: 0x18048, size: 0x8, addend: 0x0, symName: __ZNSt3__110destroy_atB8ue170006INS_4pairIK8CStudentNS_15__list_iteratorIS2_PvEEEELi0EEEvPT_, symObjAddr: 0x3F2C4, symBinAddr: 0x1000422B0, symSize: 0x24 }
  - { offsetInCU: 0x1807F, offset: 0x1807F, size: 0x8, addend: 0x0, symName: __ZNSt3__112__destroy_atB8ue170006INS_4pairIK8CStudentNS_15__list_iteratorIS2_PvEEEELi0EEEvPT_, symObjAddr: 0x3F2E8, symBinAddr: 0x1000422D4, symSize: 0x24 }
  - { offsetInCU: 0x181F6, offset: 0x181F6, size: 0x8, addend: 0x0, symName: __ZNSt3__112construct_atB8ue170006I8CStudentJRKS1_EPS1_EEPT_S6_DpOT0_, symObjAddr: 0x40C14, symBinAddr: 0x100043C00, symSize: 0x3C }
  - { offsetInCU: 0x18266, offset: 0x18266, size: 0x8, addend: 0x0, symName: __ZNSt3__19__advanceB8ue170006INS_15__list_iteratorI8CStudentPvEEEEvRT_NS_15iterator_traitsIS5_E15difference_typeENS_26bidirectional_iterator_tagE, symObjAddr: 0x40FB0, symBinAddr: 0x100043F9C, symSize: 0xA4 }
  - { offsetInCU: 0x18316, offset: 0x18316, size: 0x8, addend: 0x0, symName: __ZNSt3__1neB8ue170006ERKNS_21__list_const_iteratorI8CStudentPvEES5_, symObjAddr: 0x4172C, symBinAddr: 0x100044718, symSize: 0x34 }
  - { offsetInCU: 0x18353, offset: 0x18353, size: 0x8, addend: 0x0, symName: __ZNSt3__1eqB8ue170006ERKNS_21__list_const_iteratorI8CStudentPvEES5_, symObjAddr: 0x42D04, symBinAddr: 0x100045CF0, symSize: 0xB8 }
  - { offsetInCU: 0x18390, offset: 0x18390, size: 0x8, addend: 0x0, symName: __ZNSt3__1geB8ue170006ENS_15strong_orderingENS_20_CmpUnspecifiedParamE, symObjAddr: 0x43170, symBinAddr: 0x10004615C, symSize: 0x274 }
  - { offsetInCU: 0x183CE, offset: 0x183CE, size: 0x8, addend: 0x0, symName: __ZNSt3__1leB8ue170006ENS_15strong_orderingENS_20_CmpUnspecifiedParamE, symObjAddr: 0x43630, symBinAddr: 0x10004661C, symSize: 0x274 }
  - { offsetInCU: 0x1840C, offset: 0x1840C, size: 0x8, addend: 0x0, symName: __ZNSt3__1neB8ue170006ERKNS_21__tree_const_iteratorINS_6vectorINS_12basic_stringIcNS_11char_traitsIcEENS_9allocatorIcEEEENS5_IS7_EEEEPNS_11__tree_nodeIS9_PvEElEESG_, symObjAddr: 0x4397C, symBinAddr: 0x100046968, symSize: 0x34 }
  - { offsetInCU: 0x18449, offset: 0x18449, size: 0x8, addend: 0x0, symName: __ZNSt3__1eqB8ue170006ERKNS_21__tree_const_iteratorINS_6vectorINS_12basic_stringIcNS_11char_traitsIcEENS_9allocatorIcEEEENS5_IS7_EEEEPNS_11__tree_nodeIS9_PvEElEESG_, symObjAddr: 0x43E20, symBinAddr: 0x100046E0C, symSize: 0xB8 }
  - { offsetInCU: 0x18486, offset: 0x18486, size: 0x8, addend: 0x0, symName: __ZNSt3__14nextB8ue170006INS_15__list_iteratorI8CStudentPvEEEENS_9enable_ifIXsr29__has_input_iterator_categoryIT_EE5valueES6_E4typeES6_NS_15iterator_traitsIS6_E15difference_typeE, symObjAddr: 0x47858, symBinAddr: 0x10004A844, symSize: 0x288 }
  - { offsetInCU: 0x184CE, offset: 0x184CE, size: 0x8, addend: 0x0, symName: __ZNSt3__1neB8ue170006ERKNS_15__list_iteratorI8CStudentPvEES5_, symObjAddr: 0x47AE0, symBinAddr: 0x10004AACC, symSize: 0x34 }
  - { offsetInCU: 0x1850B, offset: 0x1850B, size: 0x8, addend: 0x0, symName: __ZNSt3__1eqB8ue170006ERKNS_15__list_iteratorI8CStudentPvEES5_, symObjAddr: 0x47B14, symBinAddr: 0x10004AB00, symSize: 0xB8 }
  - { offsetInCU: 0x18548, offset: 0x18548, size: 0x8, addend: 0x0, symName: __ZNSt3__1neB8ue170006IPNS_4pairI8ESortKeybEEEEbRKNS_11__wrap_iterIT_EES9_, symObjAddr: 0x480D8, symBinAddr: 0x10004B0C4, symSize: 0x34 }
  - { offsetInCU: 0x1858B, offset: 0x1858B, size: 0x8, addend: 0x0, symName: __ZNSt3__13getB8ue170006ILm0E8ESortKeybEERKNS_13tuple_elementIXT_ENS_4pairIT0_T1_EEE4typeERKS6_, symObjAddr: 0x4816C, symBinAddr: 0x10004B158, symSize: 0x24 }
  - { offsetInCU: 0x185D5, offset: 0x185D5, size: 0x8, addend: 0x0, symName: __ZNSt3__13getB8ue170006ILm1E8ESortKeybEERKNS_13tuple_elementIXT_ENS_4pairIT0_T1_EEE4typeERKS6_, symObjAddr: 0x48190, symBinAddr: 0x10004B17C, symSize: 0x24 }
  - { offsetInCU: 0x1861F, offset: 0x1861F, size: 0x8, addend: 0x0, symName: __ZNSt3__122__make_exception_guardB8ue170006INS_6vectorINS_4pairI8ESortKeybEENS_9allocatorIS4_EEE16__destroy_vectorEEENS_28__exception_guard_exceptionsIT_EESA_, symObjAddr: 0x48BB4, symBinAddr: 0x10004BBA0, symSize: 0x278 }
  - { offsetInCU: 0x18658, offset: 0x18658, size: 0x8, addend: 0x0, symName: __ZNSt3__119__allocate_at_leastB8ue170006INS_9allocatorINS_4pairI8ESortKeybEEEEEENS_19__allocation_resultINS_16allocator_traitsIT_E7pointerEEERS8_m, symObjAddr: 0x49EE0, symBinAddr: 0x10004CECC, symSize: 0x28C }
  - { offsetInCU: 0x1869D, offset: 0x1869D, size: 0x8, addend: 0x0, symName: __ZNSt3__112__to_addressB8ue170006INS_4pairI8ESortKeybEEEEPT_S5_, symObjAddr: 0x4A4E8, symBinAddr: 0x10004D4D4, symSize: 0x14 }
  - { offsetInCU: 0x186D2, offset: 0x186D2, size: 0x8, addend: 0x0, symName: __ZNSt3__130__uninitialized_allocator_copyB8ue170006INS_9allocatorINS_4pairI8ESortKeybEEEEPS4_S6_S6_EET2_RT_T0_T1_S7_, symObjAddr: 0x4A598, symBinAddr: 0x10004D584, symSize: 0x2DC }
  - { offsetInCU: 0x18778, offset: 0x18778, size: 0x8, addend: 0x0, symName: __ZNSt3__114__unwrap_rangeB8ue170006IPNS_4pairI8ESortKeybEES4_EEDaT_T0_, symObjAddr: 0x4AB48, symBinAddr: 0x10004DB34, symSize: 0x224 }
  - { offsetInCU: 0x187C6, offset: 0x187C6, size: 0x8, addend: 0x0, symName: __ZNSt3__135__uninitialized_allocator_copy_implB8ue170006INS_9allocatorINS_4pairI8ESortKeybEEEEPS4_S6_S6_EET2_RT_T0_T1_S7_, symObjAddr: 0x4AD6C, symBinAddr: 0x10004DD58, symSize: 0x520 }
  - { offsetInCU: 0x18872, offset: 0x18872, size: 0x8, addend: 0x0, symName: __ZNSt3__113__unwrap_iterB8ue170006IPNS_4pairI8ESortKeybEENS_18__unwrap_iter_implIS4_Lb1EEELi0EEEDTclsrT0_8__unwrapclsr3stdE7declvalIT_EEEES8_, symObjAddr: 0x4B28C, symBinAddr: 0x10004E278, symSize: 0x24 }
  - { offsetInCU: 0x188B6, offset: 0x188B6, size: 0x8, addend: 0x0, symName: __ZNSt3__113__rewrap_iterB8ue170006IPNS_4pairI8ESortKeybEES4_NS_18__unwrap_iter_implIS4_Lb1EEEEET_S7_T0_, symObjAddr: 0x4B2B0, symBinAddr: 0x10004E29C, symSize: 0x48 }
  - { offsetInCU: 0x18A0D, offset: 0x18A0D, size: 0x8, addend: 0x0, symName: __ZNSt3__122__make_exception_guardB8ue170006INS_29_AllocatorDestroyRangeReverseINS_9allocatorINS_4pairI8ESortKeybEEEEPS5_EEEENS_28__exception_guard_exceptionsIT_EESA_, symObjAddr: 0x4B778, symBinAddr: 0x10004E764, symSize: 0x1F8 }
  - { offsetInCU: 0x18A69, offset: 0x18A69, size: 0x8, addend: 0x0, symName: __ZNSt3__112construct_atB8ue170006INS_4pairI8ESortKeybEEJRS3_EPS3_EEPT_S7_DpOT0_, symObjAddr: 0x4BC78, symBinAddr: 0x10004EC64, symSize: 0x40 }
  - { offsetInCU: 0x18AD9, offset: 0x18AD9, size: 0x8, addend: 0x0, symName: __ZNSt3__119__allocator_destroyB8ue170006INS_9allocatorINS_4pairI8ESortKeybEEEENS_16reverse_iteratorIPS4_EES8_EEvRT_T0_T1_, symObjAddr: 0x4C110, symBinAddr: 0x10004F0FC, symSize: 0x2B8 }
  - { offsetInCU: 0x18B45, offset: 0x18B45, size: 0x8, addend: 0x0, symName: __ZNSt3__1neB8ue170006IPNS_4pairI8ESortKeybEES4_EEbRKNS_16reverse_iteratorIT_EERKNS5_IT0_EE, symObjAddr: 0x4C3FC, symBinAddr: 0x10004F3E8, symSize: 0x48 }
  - { offsetInCU: 0x18B91, offset: 0x18B91, size: 0x8, addend: 0x0, symName: __ZNSt3__112__to_addressB8ue170006INS_16reverse_iteratorIPNS_4pairI8ESortKeybEEEEvEEu7__decayIDTclsr19__to_address_helperIT_EE6__callclsr3stdE7declvalIRKS7_EEEEES9_, symObjAddr: 0x4C46C, symBinAddr: 0x10004F458, symSize: 0x24 }
  - { offsetInCU: 0x18BC7, offset: 0x18BC7, size: 0x8, addend: 0x0, symName: __ZNSt3__110destroy_atB8ue170006INS_4pairI8ESortKeybEELi0EEEvPT_, symObjAddr: 0x4C560, symBinAddr: 0x10004F54C, symSize: 0x24 }
  - { offsetInCU: 0x18BFF, offset: 0x18BFF, size: 0x8, addend: 0x0, symName: __ZNSt3__112__destroy_atB8ue170006INS_4pairI8ESortKeybEELi0EEEvPT_, symObjAddr: 0x4C584, symBinAddr: 0x10004F570, symSize: 0x10 }
  - { offsetInCU: 0x18C5F, offset: 0x18C5F, size: 0x8, addend: 0x0, symName: __ZNSt3__14prevB8ue170006IPNS_4pairI8ESortKeybEEEENS_9enable_ifIXsr29__has_input_iterator_categoryIT_EE5valueES6_E4typeES6_NS_15iterator_traitsIS6_E15difference_typeE, symObjAddr: 0x4C644, symBinAddr: 0x10004F630, symSize: 0x240 }
  - { offsetInCU: 0x18CA7, offset: 0x18CA7, size: 0x8, addend: 0x0, symName: __ZNSt3__19__advanceB8ue170006IPNS_4pairI8ESortKeybEEEEvRT_NS_15iterator_traitsIS5_E15difference_typeENS_26random_access_iterator_tagE, symObjAddr: 0x4C8BC, symBinAddr: 0x10004F8A8, symSize: 0x78 }
  - { offsetInCU: 0x18D44, offset: 0x18D44, size: 0x8, addend: 0x0, symName: __ZNSt3__1eqB8ue170006IPNS_4pairI8ESortKeybEEEEbRKNS_11__wrap_iterIT_EES9_, symObjAddr: 0x4D5E8, symBinAddr: 0x1000505D4, symSize: 0x48 }
  - { offsetInCU: 0x18D87, offset: 0x18D87, size: 0x8, addend: 0x0, symName: __ZNSt3__110destroy_atB8ue170006INS_6vectorINS_12basic_stringIcNS_11char_traitsIcEENS_9allocatorIcEEEENS5_IS7_EEEELi0EEEvPT_, symObjAddr: 0x4E72C, symBinAddr: 0x100051718, symSize: 0x24 }
  - { offsetInCU: 0x18DBE, offset: 0x18DBE, size: 0x8, addend: 0x0, symName: __ZNSt3__112__destroy_atB8ue170006INS_6vectorINS_12basic_stringIcNS_11char_traitsIcEENS_9allocatorIcEEEENS5_IS7_EEEELi0EEEvPT_, symObjAddr: 0x4E750, symBinAddr: 0x10005173C, symSize: 0x24 }
  - { offsetInCU: 0x18DF5, offset: 0x18DF5, size: 0x8, addend: 0x0, symName: __ZNSt3__110destroy_atB8ue170006I8CStudentLi0EEEvPT_, symObjAddr: 0x4EEF8, symBinAddr: 0x100051EE4, symSize: 0x24 }
  - { offsetInCU: 0x18E2C, offset: 0x18E2C, size: 0x8, addend: 0x0, symName: __ZNSt3__112__destroy_atB8ue170006I8CStudentLi0EEEvPT_, symObjAddr: 0x4EF1C, symBinAddr: 0x100051F08, symSize: 0x24 }
  - { offsetInCU: 0x18E63, offset: 0x18E63, size: 0x8, addend: 0x0, symName: __ZNSt3__112construct_atB8ue170006INS_4pairI8ESortKeybEEJS3_EPS3_EEPT_S6_DpOT0_, symObjAddr: 0x4F810, symBinAddr: 0x1000527FC, symSize: 0x40 }
  - { offsetInCU: 0x18ED3, offset: 0x18ED3, size: 0x8, addend: 0x0, symName: __ZNSt3__142__uninitialized_allocator_move_if_noexceptB8ue170006INS_9allocatorINS_4pairI8ESortKeybEEEENS_16reverse_iteratorIPS4_EES8_S8_EET2_RT_T0_T1_S9_, symObjAddr: 0x508C0, symBinAddr: 0x1000538AC, symSize: 0x53C }
  - { offsetInCU: 0x18F88, offset: 0x18F88, size: 0x8, addend: 0x0, symName: __ZNSt3__14swapB8ue170006IPNS_4pairI8ESortKeybEEEENS_9enable_ifIXaasr21is_move_constructibleIT_EE5valuesr18is_move_assignableIS6_EE5valueEvE4typeERS6_S9_, symObjAddr: 0x50DFC, symBinAddr: 0x100053DE8, symSize: 0x134 }
  - { offsetInCU: 0x18FD9, offset: 0x18FD9, size: 0x8, addend: 0x0, symName: __ZNSt3__122__make_exception_guardB8ue170006INS_29_AllocatorDestroyRangeReverseINS_9allocatorINS_4pairI8ESortKeybEEEENS_16reverse_iteratorIPS5_EEEEEENS_28__exception_guard_exceptionsIT_EESC_, symObjAddr: 0x50F30, symBinAddr: 0x100053F1C, symSize: 0x1F8 }
  - { offsetInCU: 0x19010, offset: 0x19010, size: 0x8, addend: 0x0, symName: __ZNSt3__119__allocator_destroyB8ue170006INS_9allocatorINS_4pairI8ESortKeybEEEENS_16reverse_iteratorINS6_IPS4_EEEES9_EEvRT_T0_T1_, symObjAddr: 0x518D8, symBinAddr: 0x1000548C4, symSize: 0x70 }
  - { offsetInCU: 0x19075, offset: 0x19075, size: 0x8, addend: 0x0, symName: __ZNSt3__1neB8ue170006INS_16reverse_iteratorIPNS_4pairI8ESortKeybEEEES6_EEbRKNS1_IT_EERKNS1_IT0_EE, symObjAddr: 0x51B90, symBinAddr: 0x100054B7C, symSize: 0x2CC }
  - { offsetInCU: 0x190C3, offset: 0x190C3, size: 0x8, addend: 0x0, symName: __ZNSt3__112__to_addressB8ue170006INS_16reverse_iteratorINS1_IPNS_4pairI8ESortKeybEEEEEEvEEu7__decayIDTclsr19__to_address_helperIT_EE6__callclsr3stdE7declvalIRKS8_EEEEESA_, symObjAddr: 0x51E5C, symBinAddr: 0x100054E48, symSize: 0x24 }
  - { offsetInCU: 0x19122, offset: 0x19122, size: 0x8, addend: 0x0, symName: __ZNSt3__14prevB8ue170006INS_16reverse_iteratorIPNS_4pairI8ESortKeybEEEEEENS_9enable_ifIXsr29__has_input_iterator_categoryIT_EE5valueES8_E4typeES8_NS_15iterator_traitsIS8_E15difference_typeE, symObjAddr: 0x523A0, symBinAddr: 0x10005538C, symSize: 0x294 }
  - { offsetInCU: 0x1916A, offset: 0x1916A, size: 0x8, addend: 0x0, symName: __ZNSt3__19__advanceB8ue170006INS_16reverse_iteratorIPNS_4pairI8ESortKeybEEEEEEvRT_NS_15iterator_traitsIS7_E15difference_typeENS_26random_access_iterator_tagE, symObjAddr: 0x5266C, symBinAddr: 0x100055658, symSize: 0x2C }
  - { offsetInCU: 0x191B4, offset: 0x191B4, size: 0x8, addend: 0x0, symName: __ZNSt3__1neB8ue170006IPKcEEbRKNS_11__wrap_iterIT_EES7_, symObjAddr: 0x53BEC, symBinAddr: 0x100056BD8, symSize: 0x34 }
  - { offsetInCU: 0x191F7, offset: 0x191F7, size: 0x8, addend: 0x0, symName: __ZNSt3__1eqB8ue170006IPKcEEbRKNS_11__wrap_iterIT_EES7_, symObjAddr: 0x53F88, symBinAddr: 0x100056F74, symSize: 0x48 }
  - { offsetInCU: 0x1927D, offset: 0x1927D, size: 0x8, addend: 0x0, symName: __ZNSt3__112construct_atB8ue170006INS_6vectorINS_12basic_stringIcNS_11char_traitsIcEENS_9allocatorIcEEEENS5_IS7_EEEEJRKS9_EPS9_EEPT_SE_DpOT0_, symObjAddr: 0x55B50, symBinAddr: 0x100058B3C, symSize: 0x3C }
  - { offsetInCU: 0x192ED, offset: 0x192ED, size: 0x8, addend: 0x0, symName: __ZNSt3__1neB8ue170006IPNS_12basic_stringIcNS_11char_traitsIcEENS_9allocatorIcEEEEEEbRKNS_11__wrap_iterIT_EESC_, symObjAddr: 0x56E08, symBinAddr: 0x100059DF4, symSize: 0x34 }
  - { offsetInCU: 0x19330, offset: 0x19330, size: 0x8, addend: 0x0, symName: __ZNSt3__1eqB8ue170006IPNS_12basic_stringIcNS_11char_traitsIcEENS_9allocatorIcEEEEEEbRKNS_11__wrap_iterIT_EESC_, symObjAddr: 0x571E0, symBinAddr: 0x10005A1CC, symSize: 0x48 }
  - { offsetInCU: 0x19373, offset: 0x19373, size: 0x8, addend: 0x0, symName: __ZNSt3__1neB8ue170006ERKNS_14__map_iteratorINS_15__tree_iteratorINS_12__value_typeI8CStudentNS_15__list_iteratorIS3_PvEEEEPNS_11__tree_nodeIS7_S5_EElEEEESE_, symObjAddr: 0x59438, symBinAddr: 0x10005C424, symSize: 0x30 }
  - { offsetInCU: 0x193B0, offset: 0x193B0, size: 0x8, addend: 0x0, symName: __ZNSt3__1neB8ue170006ERKNS_15__tree_iteratorINS_12__value_typeI8CStudentNS_15__list_iteratorIS2_PvEEEEPNS_11__tree_nodeIS6_S4_EElEESC_, symObjAddr: 0x5A59C, symBinAddr: 0x10005D588, symSize: 0x34 }
  - { offsetInCU: 0x193ED, offset: 0x193ED, size: 0x8, addend: 0x0, symName: __ZNSt3__1eqB8ue170006ERKNS_15__tree_iteratorINS_12__value_typeI8CStudentNS_15__list_iteratorIS2_PvEEEEPNS_11__tree_nodeIS6_S4_EElEESC_, symObjAddr: 0x5A8A0, symBinAddr: 0x10005D88C, symSize: 0xB8 }
  - { offsetInCU: 0x1942A, offset: 0x1942A, size: 0x8, addend: 0x0, symName: __ZNSt3__113__tree_removeB8ue170006IPNS_16__tree_node_baseIPvEEEEvT_S5_, symObjAddr: 0x5B408, symBinAddr: 0x10005E3F4, symSize: 0x1ED4 }
  - { offsetInCU: 0x194A8, offset: 0x194A8, size: 0x8, addend: 0x0, symName: __ZNSt3__116__tree_next_iterB8ue170006IPNS_15__tree_end_nodeIPNS_16__tree_node_baseIPvEEEES5_EET_T0_, symObjAddr: 0x5D2DC, symBinAddr: 0x1000602C8, symSize: 0x134 }
  - { offsetInCU: 0x194E6, offset: 0x194E6, size: 0x8, addend: 0x0, symName: __ZNSt3__110__tree_minB8ue170006IPNS_16__tree_node_baseIPvEEEET_S5_, symObjAddr: 0x5D410, symBinAddr: 0x1000603FC, symSize: 0xC4 }
  - { offsetInCU: 0x1951B, offset: 0x1951B, size: 0x8, addend: 0x0, symName: __ZNSt3__111__tree_nextB8ue170006IPNS_16__tree_node_baseIPvEEEET_S5_, symObjAddr: 0x5D4D4, symBinAddr: 0x1000604C0, symSize: 0xFC }
  - { offsetInCU: 0x19550, offset: 0x19550, size: 0x8, addend: 0x0, symName: __ZNSt3__15equalB8ue170006INS_21__list_const_iteratorI8CStudentPvEES4_EEbT_S5_T0_, symObjAddr: 0x5E588, symBinAddr: 0x100061574, symSize: 0x40C }
  - { offsetInCU: 0x195B6, offset: 0x195B6, size: 0x8, addend: 0x0, symName: __ZNSt3__15equalB8ue170006INS_21__list_const_iteratorI8CStudentPvEES4_NS_10__equal_toEEEbT_S6_T0_T1_, symObjAddr: 0x5E994, symBinAddr: 0x100061980, symSize: 0x5B4 }
  - { offsetInCU: 0x19638, offset: 0x19638, size: 0x8, addend: 0x0, symName: __ZNSt3__117__equal_iter_implB8ue170006INS_21__list_const_iteratorI8CStudentPvEES4_NS_10__equal_toEEEbT_S6_T0_RT1_, symObjAddr: 0x5EF48, symBinAddr: 0x100061F34, symSize: 0x374 }
  - { offsetInCU: 0x196B6, offset: 0x196B6, size: 0x8, addend: 0x0, symName: __ZNSt3__113__unwrap_iterB8ue170006INS_21__list_const_iteratorI8CStudentPvEENS_18__unwrap_iter_implIS4_Lb0EEELi0EEEDTclsrT0_8__unwrapclsr3stdE7declvalIT_EEEES8_, symObjAddr: 0x5F2BC, symBinAddr: 0x1000622A8, symSize: 0x30C }
  - { offsetInCU: 0x19746, offset: 0x19746, size: 0x8, addend: 0x0, symName: __ZNSt3__14nextB8ue170006INS_21__tree_const_iteratorINS_12basic_stringIcNS_11char_traitsIcEENS_9allocatorIcEEEEPNS_11__tree_nodeIS7_PvEElEEEENS_9enable_ifIXsr29__has_input_iterator_categoryIT_EE5valueESE_E4typeESE_NS_15iterator_traitsISE_E15difference_typeE, symObjAddr: 0x619FC, symBinAddr: 0x1000649E8, symSize: 0x288 }
  - { offsetInCU: 0x1978E, offset: 0x1978E, size: 0x8, addend: 0x0, symName: __ZNSt3__19__advanceB8ue170006INS_21__tree_const_iteratorINS_12basic_stringIcNS_11char_traitsIcEENS_9allocatorIcEEEEPNS_11__tree_nodeIS7_PvEElEEEEvRT_NS_15iterator_traitsISD_E15difference_typeENS_26bidirectional_iterator_tagE, symObjAddr: 0x61D1C, symBinAddr: 0x100064D08, symSize: 0xA4 }
  - { offsetInCU: 0x197D8, offset: 0x197D8, size: 0x8, addend: 0x0, symName: __ZNSt3__116__pad_and_outputB8ue170006IcNS_11char_traitsIcEEEENS_19ostreambuf_iteratorIT_T0_EES6_PKS4_S8_S8_RNS_8ios_baseES4_, symObjAddr: 0x6282C, symBinAddr: 0x100065818, symSize: 0x760 }
  - { offsetInCU: 0x198B5, offset: 0x198B5, size: 0x8, addend: 0x0, symName: __ZNSt3__112__to_addressB8ue170006IcEEPT_S2_, symObjAddr: 0x636C8, symBinAddr: 0x1000666B4, symSize: 0x14 }
  - { offsetInCU: 0x198EA, offset: 0x198EA, size: 0x8, addend: 0x0, symName: __ZNSt3__19use_facetB8ue170006INS_5ctypeIcEEEERKT_RKNS_6localeE, symObjAddr: 0x63B44, symBinAddr: 0x100066B30, symSize: 0x2C }
  - { offsetInCU: 0x1A490, offset: 0x1A490, size: 0x8, addend: 0x0, symName: __ZSt28__throw_bad_array_new_lengthB8ue170006v, symObjAddr: 0x17794, symBinAddr: 0x10001A780, symSize: 0x38 }
  - { offsetInCU: 0x1B5EB, offset: 0x1B5EB, size: 0x8, addend: 0x0, symName: __ZNSt3__16vectorINS_12basic_stringIcNS_11char_traitsIcEENS_9allocatorIcEEEENS4_IS6_EEE26__swap_out_circular_bufferERNS_14__split_bufferIS6_RS7_EE, symObjAddr: 0x1C720, symBinAddr: 0x10001F70C, symSize: 0x56C }
  - { offsetInCU: 0x1BDBA, offset: 0x1BDBA, size: 0x8, addend: 0x0, symName: __ZNSt3__16vectorINS_4pairI8ESortKeybEENS_9allocatorIS3_EEE26__swap_out_circular_bufferERNS_14__split_bufferIS3_RS5_EE, symObjAddr: 0x4FC18, symBinAddr: 0x100052C04, symSize: 0x56C }
  - { offsetInCU: 0x1CD9E, offset: 0x1CD9E, size: 0x8, addend: 0x0, symName: __Z7toloweri, symObjAddr: 0x154DC, symBinAddr: 0x1000184C8, symSize: 0x24 }
  - { offsetInCU: 0x1E408, offset: 0x1E408, size: 0x8, addend: 0x0, symName: _main, symObjAddr: 0x0, symBinAddr: 0x100002FEC, symSize: 0xE0FC }
  - { offsetInCU: 0x1E8F5, offset: 0x1E8F5, size: 0x8, addend: 0x0, symName: __ZN10CStudyDeptC1Ev, symObjAddr: 0xE0FC, symBinAddr: 0x1000110E8, symSize: 0x2C }
  - { offsetInCU: 0x1E925, offset: 0x1E925, size: 0x8, addend: 0x0, symName: __ZNSt3__112basic_stringIcNS_11char_traitsIcEENS_9allocatorIcEEEC1B8ue170006ILi0EEEPKc, symObjAddr: 0xE128, symBinAddr: 0x100011114, symSize: 0x34 }
  - { offsetInCU: 0x1E964, offset: 0x1E964, size: 0x8, addend: 0x0, symName: __ZN5CDateC1Eiii, symObjAddr: 0xE15C, symBinAddr: 0x100011148, symSize: 0x44 }
  - { offsetInCU: 0x1E9B8, offset: 0x1E9B8, size: 0x8, addend: 0x0, symName: __ZN8CStudentC1ERKNSt3__112basic_stringIcNS0_11char_traitsIcEENS0_9allocatorIcEEEERK5CDatei, symObjAddr: 0xE1A0, symBinAddr: 0x10001118C, symSize: 0x44 }
  - { offsetInCU: 0x1EA0C, offset: 0x1EA0C, size: 0x8, addend: 0x0, symName: __ZNK8CStudenteqERKS_, symObjAddr: 0xE1E4, symBinAddr: 0x1000111D0, symSize: 0x1CC }
  - { offsetInCU: 0x1EA41, offset: 0x1EA41, size: 0x8, addend: 0x0, symName: __ZN8CStudentD1Ev, symObjAddr: 0xE3B0, symBinAddr: 0x10001139C, symSize: 0x2C }
  - { offsetInCU: 0x1EA6D, offset: 0x1EA6D, size: 0x8, addend: 0x0, symName: __ZN10CStudyDept10addStudentERK8CStudent, symObjAddr: 0xE3DC, symBinAddr: 0x1000113C8, symSize: 0x61C }
  - { offsetInCU: 0x1EAD0, offset: 0x1EAD0, size: 0x8, addend: 0x0, symName: __ZNK10CStudyDept6searchERK7CFilterRK5CSort, symObjAddr: 0xEDF0, symBinAddr: 0x100011DDC, symSize: 0x508 }
  - { offsetInCU: 0x1EB84, offset: 0x1EB84, size: 0x8, addend: 0x0, symName: __ZN7CFilterC1Ev, symObjAddr: 0xF2F8, symBinAddr: 0x1000122E4, symSize: 0x2C }
  - { offsetInCU: 0x1EBAE, offset: 0x1EBAE, size: 0x8, addend: 0x0, symName: __ZN5CSortC1Ev, symObjAddr: 0xF324, symBinAddr: 0x100012310, symSize: 0x2C }
  - { offsetInCU: 0x1EBD8, offset: 0x1EBD8, size: 0x8, addend: 0x0, symName: __ZNSt3__14listI8CStudentNS_9allocatorIS1_EEEC1ESt16initializer_listIS1_E, symObjAddr: 0xF350, symBinAddr: 0x10001233C, symSize: 0x248 }
  - { offsetInCU: 0x1EC18, offset: 0x1EC18, size: 0x8, addend: 0x0, symName: __ZNSt3__14listI8CStudentNS_9allocatorIS1_EEED1Ev, symObjAddr: 0xF598, symBinAddr: 0x100012584, symSize: 0x2C }
  - { offsetInCU: 0x1EC45, offset: 0x1EC45, size: 0x8, addend: 0x0, symName: __ZN5CSortD1Ev, symObjAddr: 0xF5C4, symBinAddr: 0x1000125B0, symSize: 0x2C }
  - { offsetInCU: 0x1EC71, offset: 0x1EC71, size: 0x8, addend: 0x0, symName: __ZN7CFilterD1Ev, symObjAddr: 0xF5F0, symBinAddr: 0x1000125DC, symSize: 0x2C }
  - { offsetInCU: 0x1EC9D, offset: 0x1EC9D, size: 0x8, addend: 0x0, symName: __ZN5CSort6addKeyE8ESortKeyb, symObjAddr: 0xF61C, symBinAddr: 0x100012608, symSize: 0x300 }
  - { offsetInCU: 0x1ECEA, offset: 0x1ECEA, size: 0x8, addend: 0x0, symName: __ZN7CFilter4nameERKNSt3__112basic_stringIcNS0_11char_traitsIcEENS0_9allocatorIcEEEE, symObjAddr: 0xF91C, symBinAddr: 0x100012908, symSize: 0x660 }
  - { offsetInCU: 0x1ED44, offset: 0x1ED44, size: 0x8, addend: 0x0, symName: __ZN7CFilter9bornAfterERK5CDate, symObjAddr: 0xFF7C, symBinAddr: 0x100012F68, symSize: 0x118 }
  - { offsetInCU: 0x1ED78, offset: 0x1ED78, size: 0x8, addend: 0x0, symName: __ZN7CFilter10bornBeforeERK5CDate, symObjAddr: 0x10094, symBinAddr: 0x100013080, symSize: 0x118 }
  - { offsetInCU: 0x1EDAC, offset: 0x1EDAC, size: 0x8, addend: 0x0, symName: __ZNSt3__14listI8CStudentNS_9allocatorIS1_EEEC1B8ue170006Ev, symObjAddr: 0x101AC, symBinAddr: 0x100013198, symSize: 0x2C }
  - { offsetInCU: 0x1EDD6, offset: 0x1EDD6, size: 0x8, addend: 0x0, symName: __ZNK10CStudyDept7suggestERKNSt3__112basic_stringIcNS0_11char_traitsIcEENS0_9allocatorIcEEEE, symObjAddr: 0x105D0, symBinAddr: 0x1000135BC, symSize: 0x7C4 }
  - { offsetInCU: 0x1EEF2, offset: 0x1EEF2, size: 0x8, addend: 0x0, symName: __ZNSt3__13setINS_12basic_stringIcNS_11char_traitsIcEENS_9allocatorIcEEEENS_4lessIS6_EENS4_IS6_EEEC1B8ue170006ESt16initializer_listIS6_ERKS8_, symObjAddr: 0x10D94, symBinAddr: 0x100013D80, symSize: 0x260 }
  - { offsetInCU: 0x1EF40, offset: 0x1EF40, size: 0x8, addend: 0x0, symName: __ZNSt3__13setINS_12basic_stringIcNS_11char_traitsIcEENS_9allocatorIcEEEENS_4lessIS6_EENS4_IS6_EEED1B8ue170006Ev, symObjAddr: 0x10FF4, symBinAddr: 0x100013FE0, symSize: 0x2C }
  - { offsetInCU: 0x1EF6A, offset: 0x1EF6A, size: 0x8, addend: 0x0, symName: __ZNSt3__13setINS_12basic_stringIcNS_11char_traitsIcEENS_9allocatorIcEEEENS_4lessIS6_EENS4_IS6_EEEC1B8ue170006Ev, symObjAddr: 0x11020, symBinAddr: 0x10001400C, symSize: 0x2C }
  - { offsetInCU: 0x1EF94, offset: 0x1EF94, size: 0x8, addend: 0x0, symName: __ZNSt3__13setINS_12basic_stringIcNS_11char_traitsIcEENS_9allocatorIcEEEENS_4lessIS6_EENS4_IS6_EEE5beginB8ue170006Ev, symObjAddr: 0x1104C, symBinAddr: 0x100014038, symSize: 0x2B4 }
  - { offsetInCU: 0x1EFBB, offset: 0x1EFBB, size: 0x8, addend: 0x0, symName: __ZNSt3__13setINS_12basic_stringIcNS_11char_traitsIcEENS_9allocatorIcEEEENS_4lessIS6_EENS4_IS6_EEE3endB8ue170006Ev, symObjAddr: 0x11300, symBinAddr: 0x1000142EC, symSize: 0x2B4 }
  - { offsetInCU: 0x1EFE2, offset: 0x1EFE2, size: 0x8, addend: 0x0, symName: __ZNKSt3__121__tree_const_iteratorINS_12basic_stringIcNS_11char_traitsIcEENS_9allocatorIcEEEEPNS_11__tree_nodeIS6_PvEElEdeB8ue170006Ev, symObjAddr: 0x115E8, symBinAddr: 0x1000145D4, symSize: 0x28 }
  - { offsetInCU: 0x1F008, offset: 0x1F008, size: 0x8, addend: 0x0, symName: __ZNSt3__121__tree_const_iteratorINS_12basic_stringIcNS_11char_traitsIcEENS_9allocatorIcEEEEPNS_11__tree_nodeIS6_PvEElEppB8ue170006Ev, symObjAddr: 0x116A4, symBinAddr: 0x100014690, symSize: 0xA8 }
  - { offsetInCU: 0x1F02E, offset: 0x1F02E, size: 0x8, addend: 0x0, symName: __ZN10CStudyDept10delStudentERK8CStudent, symObjAddr: 0x1174C, symBinAddr: 0x100014738, symSize: 0x4C0 }
  - { offsetInCU: 0x1F078, offset: 0x1F078, size: 0x8, addend: 0x0, symName: __ZN10CStudyDeptD1Ev, symObjAddr: 0x11C0C, symBinAddr: 0x100014BF8, symSize: 0x2C }
  - { offsetInCU: 0x1F0A5, offset: 0x1F0A5, size: 0x8, addend: 0x0, symName: __ZN10CStudyDeptC2Ev, symObjAddr: 0x11C38, symBinAddr: 0x100014C24, symSize: 0x38 }
  - { offsetInCU: 0x1F0CF, offset: 0x1F0CF, size: 0x8, addend: 0x0, symName: __ZNSt3__13mapI8CStudentNS_15__list_iteratorIS1_PvEENS_4lessIS1_EENS_9allocatorINS_4pairIKS1_S4_EEEEEC1B8ue170006Ev, symObjAddr: 0x11C70, symBinAddr: 0x100014C5C, symSize: 0x2C }
  - { offsetInCU: 0x1F0F9, offset: 0x1F0F9, size: 0x8, addend: 0x0, symName: __ZNSt3__13mapI8CStudentNS_15__list_iteratorIS1_PvEENS_4lessIS1_EENS_9allocatorINS_4pairIKS1_S4_EEEEEC2B8ue170006Ev, symObjAddr: 0x11C9C, symBinAddr: 0x100014C88, symSize: 0x1E8 }
  - { offsetInCU: 0x1F124, offset: 0x1F124, size: 0x8, addend: 0x0, symName: __ZNSt3__119__map_value_compareI8CStudentNS_12__value_typeIS1_NS_15__list_iteratorIS1_PvEEEENS_4lessIS1_EELb1EEC1B8ue170006ES8_, symObjAddr: 0x11E84, symBinAddr: 0x100014E70, symSize: 0x2C }
  - { offsetInCU: 0x1F15D, offset: 0x1F15D, size: 0x8, addend: 0x0, symName: __ZNSt3__16__treeINS_12__value_typeI8CStudentNS_15__list_iteratorIS2_PvEEEENS_19__map_value_compareIS2_S6_NS_4lessIS2_EELb1EEENS_9allocatorIS6_EEEC1ERKSA_, symObjAddr: 0x11EB0, symBinAddr: 0x100014E9C, symSize: 0x34 }
  - { offsetInCU: 0x1F198, offset: 0x1F198, size: 0x8, addend: 0x0, symName: __ZNSt3__119__map_value_compareI8CStudentNS_12__value_typeIS1_NS_15__list_iteratorIS1_PvEEEENS_4lessIS1_EELb1EEC2B8ue170006ES8_, symObjAddr: 0x11EE4, symBinAddr: 0x100014ED0, symSize: 0x14 }
  - { offsetInCU: 0x1F1D1, offset: 0x1F1D1, size: 0x8, addend: 0x0, symName: __ZNSt3__16__treeINS_12__value_typeI8CStudentNS_15__list_iteratorIS2_PvEEEENS_19__map_value_compareIS2_S6_NS_4lessIS2_EELb1EEENS_9allocatorIS6_EEEC2ERKSA_, symObjAddr: 0x11EF8, symBinAddr: 0x100014EE4, symSize: 0x2CC }
  - { offsetInCU: 0x1F20E, offset: 0x1F20E, size: 0x8, addend: 0x0, symName: __ZNSt3__117__compressed_pairINS_15__tree_end_nodeIPNS_16__tree_node_baseIPvEEEENS_9allocatorINS_11__tree_nodeINS_12__value_typeI8CStudentNS_15__list_iteratorISA_S3_EEEES3_EEEEEC1B8ue170006ILb1EvEEv, symObjAddr: 0x121C4, symBinAddr: 0x1000151B0, symSize: 0x2C }
  - { offsetInCU: 0x1F249, offset: 0x1F249, size: 0x8, addend: 0x0, symName: __ZNSt3__117__compressed_pairImNS_19__map_value_compareI8CStudentNS_12__value_typeIS2_NS_15__list_iteratorIS2_PvEEEENS_4lessIS2_EELb1EEEEC1B8ue170006IiRKSA_EEOT_OT0_, symObjAddr: 0x121FC, symBinAddr: 0x1000151E8, symSize: 0x3C }
  - { offsetInCU: 0x1F2A1, offset: 0x1F2A1, size: 0x8, addend: 0x0, symName: __ZNSt3__16__treeINS_12__value_typeI8CStudentNS_15__list_iteratorIS2_PvEEEENS_19__map_value_compareIS2_S6_NS_4lessIS2_EELb1EEENS_9allocatorIS6_EEE10__end_nodeB8ue170006Ev, symObjAddr: 0x12238, symBinAddr: 0x100015224, symSize: 0x2C }
  - { offsetInCU: 0x1F2C7, offset: 0x1F2C7, size: 0x8, addend: 0x0, symName: __ZNSt3__16__treeINS_12__value_typeI8CStudentNS_15__list_iteratorIS2_PvEEEENS_19__map_value_compareIS2_S6_NS_4lessIS2_EELb1EEENS_9allocatorIS6_EEE12__begin_nodeB8ue170006Ev, symObjAddr: 0x12264, symBinAddr: 0x100015250, symSize: 0x14 }
  - { offsetInCU: 0x1F2ED, offset: 0x1F2ED, size: 0x8, addend: 0x0, symName: __ZNSt3__117__compressed_pairINS_15__tree_end_nodeIPNS_16__tree_node_baseIPvEEEENS_9allocatorINS_11__tree_nodeINS_12__value_typeI8CStudentNS_15__list_iteratorISA_S3_EEEES3_EEEEEC2B8ue170006ILb1EvEEv, symObjAddr: 0x12278, symBinAddr: 0x100015264, symSize: 0x34 }
  - { offsetInCU: 0x1F322, offset: 0x1F322, size: 0x8, addend: 0x0, symName: __ZNSt3__122__compressed_pair_elemINS_15__tree_end_nodeIPNS_16__tree_node_baseIPvEEEELi0ELb0EEC2B8ue170006ENS_16__value_init_tagE, symObjAddr: 0x122AC, symBinAddr: 0x100015298, symSize: 0x2C }
  - { offsetInCU: 0x1F357, offset: 0x1F357, size: 0x8, addend: 0x0, symName: __ZNSt3__122__compressed_pair_elemINS_9allocatorINS_11__tree_nodeINS_12__value_typeI8CStudentNS_15__list_iteratorIS4_PvEEEES6_EEEELi1ELb1EEC2B8ue170006ENS_16__value_init_tagE, symObjAddr: 0x122D8, symBinAddr: 0x1000152C4, symSize: 0x2C }
  - { offsetInCU: 0x1F38C, offset: 0x1F38C, size: 0x8, addend: 0x0, symName: __ZNSt3__115__tree_end_nodeIPNS_16__tree_node_baseIPvEEEC1B8ue170006Ev, symObjAddr: 0x12304, symBinAddr: 0x1000152F0, symSize: 0x2C }
  - { offsetInCU: 0x1F3B6, offset: 0x1F3B6, size: 0x8, addend: 0x0, symName: __ZNSt3__115__tree_end_nodeIPNS_16__tree_node_baseIPvEEEC2B8ue170006Ev, symObjAddr: 0x12330, symBinAddr: 0x10001531C, symSize: 0x60 }
  - { offsetInCU: 0x1F3E0, offset: 0x1F3E0, size: 0x8, addend: 0x0, symName: __ZNSt3__19allocatorINS_11__tree_nodeINS_12__value_typeI8CStudentNS_15__list_iteratorIS3_PvEEEES5_EEEC2B8ue170006Ev, symObjAddr: 0x12390, symBinAddr: 0x10001537C, symSize: 0x2C }
  - { offsetInCU: 0x1F40A, offset: 0x1F40A, size: 0x8, addend: 0x0, symName: __ZNSt3__116__non_trivial_ifILb1ENS_9allocatorINS_11__tree_nodeINS_12__value_typeI8CStudentNS_15__list_iteratorIS4_PvEEEES6_EEEEEC2B8ue170006Ev, symObjAddr: 0x123BC, symBinAddr: 0x1000153A8, symSize: 0x14 }
  - { offsetInCU: 0x1F434, offset: 0x1F434, size: 0x8, addend: 0x0, symName: __ZNSt3__117__compressed_pairImNS_19__map_value_compareI8CStudentNS_12__value_typeIS2_NS_15__list_iteratorIS2_PvEEEENS_4lessIS2_EELb1EEEEC2B8ue170006IiRKSA_EEOT_OT0_, symObjAddr: 0x123D0, symBinAddr: 0x1000153BC, symSize: 0x44 }
  - { offsetInCU: 0x1F48C, offset: 0x1F48C, size: 0x8, addend: 0x0, symName: __ZNSt3__122__compressed_pair_elemImLi0ELb0EEC2B8ue170006IivEEOT_, symObjAddr: 0x12414, symBinAddr: 0x100015400, symSize: 0xD8 }
  - { offsetInCU: 0x1F4CE, offset: 0x1F4CE, size: 0x8, addend: 0x0, symName: __ZNSt3__122__compressed_pair_elemINS_19__map_value_compareI8CStudentNS_12__value_typeIS2_NS_15__list_iteratorIS2_PvEEEENS_4lessIS2_EELb1EEELi1ELb1EEC2B8ue170006IRKSA_vEEOT_, symObjAddr: 0x124EC, symBinAddr: 0x1000154D8, symSize: 0x18 }
  - { offsetInCU: 0x1F510, offset: 0x1F510, size: 0x8, addend: 0x0, symName: __ZNSt3__114pointer_traitsIPNS_15__tree_end_nodeIPNS_16__tree_node_baseIPvEEEEE10pointer_toB8ue170006ERS6_, symObjAddr: 0x12504, symBinAddr: 0x1000154F0, symSize: 0x14 }
  - { offsetInCU: 0x1F533, offset: 0x1F533, size: 0x8, addend: 0x0, symName: __ZNSt3__117__compressed_pairINS_15__tree_end_nodeIPNS_16__tree_node_baseIPvEEEENS_9allocatorINS_11__tree_nodeINS_12__value_typeI8CStudentNS_15__list_iteratorISA_S3_EEEES3_EEEEE5firstB8ue170006Ev, symObjAddr: 0x12518, symBinAddr: 0x100015504, symSize: 0x24 }
  - { offsetInCU: 0x1F559, offset: 0x1F559, size: 0x8, addend: 0x0, symName: __ZNSt3__122__compressed_pair_elemINS_15__tree_end_nodeIPNS_16__tree_node_baseIPvEEEELi0ELb0EE5__getB8ue170006Ev, symObjAddr: 0x1253C, symBinAddr: 0x100015528, symSize: 0x14 }
  - { offsetInCU: 0x1F57F, offset: 0x1F57F, size: 0x8, addend: 0x0, symName: __ZNSt3__112basic_stringIcNS_11char_traitsIcEENS_9allocatorIcEEEC2B8ue170006ILi0EEEPKc, symObjAddr: 0x12550, symBinAddr: 0x10001553C, symSize: 0x210 }
  - { offsetInCU: 0x1F5C6, offset: 0x1F5C6, size: 0x8, addend: 0x0, symName: __ZNSt3__117__compressed_pairINS_12basic_stringIcNS_11char_traitsIcEENS_9allocatorIcEEE5__repES5_EC1B8ue170006INS_18__default_init_tagESA_EEOT_OT0_, symObjAddr: 0x12760, symBinAddr: 0x10001574C, symSize: 0x3C }
  - { offsetInCU: 0x1F61E, offset: 0x1F61E, size: 0x8, addend: 0x0, symName: __ZNSt3__111char_traitsIcE6lengthB8ue170006EPKc, symObjAddr: 0x1279C, symBinAddr: 0x100015788, symSize: 0x40 }
  - { offsetInCU: 0x1F641, offset: 0x1F641, size: 0x8, addend: 0x0, symName: __ZNSt3__117__compressed_pairINS_12basic_stringIcNS_11char_traitsIcEENS_9allocatorIcEEE5__repES5_EC2B8ue170006INS_18__default_init_tagESA_EEOT_OT0_, symObjAddr: 0x127DC, symBinAddr: 0x1000157C8, symSize: 0x3C }
  - { offsetInCU: 0x1F699, offset: 0x1F699, size: 0x8, addend: 0x0, symName: __ZNSt3__122__compressed_pair_elemINS_12basic_stringIcNS_11char_traitsIcEENS_9allocatorIcEEE5__repELi0ELb0EEC2B8ue170006ENS_18__default_init_tagE, symObjAddr: 0x12818, symBinAddr: 0x100015804, symSize: 0x14 }
  - { offsetInCU: 0x1F6CE, offset: 0x1F6CE, size: 0x8, addend: 0x0, symName: __ZNSt3__122__compressed_pair_elemINS_9allocatorIcEELi1ELb1EEC2B8ue170006ENS_18__default_init_tagE, symObjAddr: 0x1282C, symBinAddr: 0x100015818, symSize: 0x2C }
  - { offsetInCU: 0x1F703, offset: 0x1F703, size: 0x8, addend: 0x0, symName: __ZNSt3__19allocatorIcEC2B8ue170006Ev, symObjAddr: 0x12858, symBinAddr: 0x100015844, symSize: 0x2C }
  - { offsetInCU: 0x1F72D, offset: 0x1F72D, size: 0x8, addend: 0x0, symName: __ZNSt3__116__non_trivial_ifILb1ENS_9allocatorIcEEEC2B8ue170006Ev, symObjAddr: 0x12884, symBinAddr: 0x100015870, symSize: 0x14 }
  - { offsetInCU: 0x1F757, offset: 0x1F757, size: 0x8, addend: 0x0, symName: __ZN5CDateC2Eiii, symObjAddr: 0x128BC, symBinAddr: 0x1000158A8, symSize: 0x17C }
  - { offsetInCU: 0x1F7AB, offset: 0x1F7AB, size: 0x8, addend: 0x0, symName: __ZN8CStudentC2ERKNSt3__112basic_stringIcNS0_11char_traitsIcEENS0_9allocatorIcEEEERK5CDatei, symObjAddr: 0x12A38, symBinAddr: 0x100015A24, symSize: 0x480 }
  - { offsetInCU: 0x1F803, offset: 0x1F803, size: 0x8, addend: 0x0, symName: __ZNSt3__18multisetINS_12basic_stringIcNS_11char_traitsIcEENS_9allocatorIcEEEENS_4lessIS6_EENS4_IS6_EEEC1B8ue170006Ev, symObjAddr: 0x12EB8, symBinAddr: 0x100015EA4, symSize: 0x2C }
  - { offsetInCU: 0x1F82D, offset: 0x1F82D, size: 0x8, addend: 0x0, symName: __ZNSt3__16vectorINS_12basic_stringIcNS_11char_traitsIcEENS_9allocatorIcEEEENS4_IS6_EEEC1B8ue170006Ev, symObjAddr: 0x12EE4, symBinAddr: 0x100015ED0, symSize: 0x2C }
  - { offsetInCU: 0x1F857, offset: 0x1F857, size: 0x8, addend: 0x0, symName: __ZN8CStudent18splitNameIntoWordsEv, symObjAddr: 0x12F10, symBinAddr: 0x100015EFC, symSize: 0x638 }
  - { offsetInCU: 0x1F8E4, offset: 0x1F8E4, size: 0x8, addend: 0x0, symName: __ZNSt3__16vectorINS_12basic_stringIcNS_11char_traitsIcEENS_9allocatorIcEEEENS4_IS6_EEE5beginB8ue170006Ev, symObjAddr: 0x13890, symBinAddr: 0x10001687C, symSize: 0x268 }
  - { offsetInCU: 0x1F90D, offset: 0x1F90D, size: 0x8, addend: 0x0, symName: __ZNSt3__16vectorINS_12basic_stringIcNS_11char_traitsIcEENS_9allocatorIcEEEENS4_IS6_EEE3endB8ue170006Ev, symObjAddr: 0x13AF8, symBinAddr: 0x100016AE4, symSize: 0x26C }
  - { offsetInCU: 0x1F936, offset: 0x1F936, size: 0x8, addend: 0x0, symName: __ZNSt3__16vectorINS_12basic_stringIcNS_11char_traitsIcEENS_9allocatorIcEEEENS4_IS6_EEED1B8ue170006Ev, symObjAddr: 0x13D64, symBinAddr: 0x100016D50, symSize: 0x2C }
  - { offsetInCU: 0x1F960, offset: 0x1F960, size: 0x8, addend: 0x0, symName: __ZNSt3__18multisetINS_12basic_stringIcNS_11char_traitsIcEENS_9allocatorIcEEEENS_4lessIS6_EENS4_IS6_EEED1B8ue170006Ev, symObjAddr: 0x13D90, symBinAddr: 0x100016D7C, symSize: 0x2C }
  - { offsetInCU: 0x1F98A, offset: 0x1F98A, size: 0x8, addend: 0x0, symName: __ZNSt3__18multisetINS_12basic_stringIcNS_11char_traitsIcEENS_9allocatorIcEEEENS_4lessIS6_EENS4_IS6_EEEC2B8ue170006Ev, symObjAddr: 0x13DBC, symBinAddr: 0x100016DA8, symSize: 0x1D8 }
  - { offsetInCU: 0x1F9B5, offset: 0x1F9B5, size: 0x8, addend: 0x0, symName: __ZNSt3__16__treeINS_12basic_stringIcNS_11char_traitsIcEENS_9allocatorIcEEEENS_4lessIS6_EENS4_IS6_EEEC1ERKS8_, symObjAddr: 0x13F94, symBinAddr: 0x100016F80, symSize: 0x34 }
  - { offsetInCU: 0x1F9F0, offset: 0x1F9F0, size: 0x8, addend: 0x0, symName: __ZNSt3__16__treeINS_12basic_stringIcNS_11char_traitsIcEENS_9allocatorIcEEEENS_4lessIS6_EENS4_IS6_EEEC2ERKS8_, symObjAddr: 0x13FC8, symBinAddr: 0x100016FB4, symSize: 0x2CC }
  - { offsetInCU: 0x1FA2D, offset: 0x1FA2D, size: 0x8, addend: 0x0, symName: __ZNSt3__117__compressed_pairINS_15__tree_end_nodeIPNS_16__tree_node_baseIPvEEEENS_9allocatorINS_11__tree_nodeINS_12basic_stringIcNS_11char_traitsIcEENS7_IcEEEES3_EEEEEC1B8ue170006ILb1EvEEv, symObjAddr: 0x14294, symBinAddr: 0x100017280, symSize: 0x2C }
  - { offsetInCU: 0x1FA62, offset: 0x1FA62, size: 0x8, addend: 0x0, symName: __ZNSt3__117__compressed_pairImNS_4lessINS_12basic_stringIcNS_11char_traitsIcEENS_9allocatorIcEEEEEEEC1B8ue170006IiRKS8_EEOT_OT0_, symObjAddr: 0x142C0, symBinAddr: 0x1000172AC, symSize: 0x3C }
  - { offsetInCU: 0x1FABA, offset: 0x1FABA, size: 0x8, addend: 0x0, symName: __ZNSt3__16__treeINS_12basic_stringIcNS_11char_traitsIcEENS_9allocatorIcEEEENS_4lessIS6_EENS4_IS6_EEE10__end_nodeB8ue170006Ev, symObjAddr: 0x142FC, symBinAddr: 0x1000172E8, symSize: 0x2C }
  - { offsetInCU: 0x1FAE0, offset: 0x1FAE0, size: 0x8, addend: 0x0, symName: __ZNSt3__16__treeINS_12basic_stringIcNS_11char_traitsIcEENS_9allocatorIcEEEENS_4lessIS6_EENS4_IS6_EEE12__begin_nodeB8ue170006Ev, symObjAddr: 0x14328, symBinAddr: 0x100017314, symSize: 0x14 }
  - { offsetInCU: 0x1FB06, offset: 0x1FB06, size: 0x8, addend: 0x0, symName: __ZNSt3__117__compressed_pairINS_15__tree_end_nodeIPNS_16__tree_node_baseIPvEEEENS_9allocatorINS_11__tree_nodeINS_12basic_stringIcNS_11char_traitsIcEENS7_IcEEEES3_EEEEEC2B8ue170006ILb1EvEEv, symObjAddr: 0x1433C, symBinAddr: 0x100017328, symSize: 0x34 }
  - { offsetInCU: 0x1FB3B, offset: 0x1FB3B, size: 0x8, addend: 0x0, symName: __ZNSt3__122__compressed_pair_elemINS_9allocatorINS_11__tree_nodeINS_12basic_stringIcNS_11char_traitsIcEENS1_IcEEEEPvEEEELi1ELb1EEC2B8ue170006ENS_16__value_init_tagE, symObjAddr: 0x14370, symBinAddr: 0x10001735C, symSize: 0x2C }
  - { offsetInCU: 0x1FB70, offset: 0x1FB70, size: 0x8, addend: 0x0, symName: __ZNSt3__19allocatorINS_11__tree_nodeINS_12basic_stringIcNS_11char_traitsIcEENS0_IcEEEEPvEEEC2B8ue170006Ev, symObjAddr: 0x1439C, symBinAddr: 0x100017388, symSize: 0x2C }
  - { offsetInCU: 0x1FB9A, offset: 0x1FB9A, size: 0x8, addend: 0x0, symName: __ZNSt3__116__non_trivial_ifILb1ENS_9allocatorINS_11__tree_nodeINS_12basic_stringIcNS_11char_traitsIcEENS1_IcEEEEPvEEEEEC2B8ue170006Ev, symObjAddr: 0x143C8, symBinAddr: 0x1000173B4, symSize: 0x14 }
  - { offsetInCU: 0x1FBC4, offset: 0x1FBC4, size: 0x8, addend: 0x0, symName: __ZNSt3__117__compressed_pairImNS_4lessINS_12basic_stringIcNS_11char_traitsIcEENS_9allocatorIcEEEEEEEC2B8ue170006IiRKS8_EEOT_OT0_, symObjAddr: 0x143DC, symBinAddr: 0x1000173C8, symSize: 0x44 }
  - { offsetInCU: 0x1FC1C, offset: 0x1FC1C, size: 0x8, addend: 0x0, symName: __ZNSt3__122__compressed_pair_elemINS_4lessINS_12basic_stringIcNS_11char_traitsIcEENS_9allocatorIcEEEEEELi1ELb1EEC2B8ue170006IRKS8_vEEOT_, symObjAddr: 0x14420, symBinAddr: 0x10001740C, symSize: 0x18 }
  - { offsetInCU: 0x1FC5E, offset: 0x1FC5E, size: 0x8, addend: 0x0, symName: __ZNSt3__117__compressed_pairINS_15__tree_end_nodeIPNS_16__tree_node_baseIPvEEEENS_9allocatorINS_11__tree_nodeINS_12basic_stringIcNS_11char_traitsIcEENS7_IcEEEES3_EEEEE5firstB8ue170006Ev, symObjAddr: 0x14438, symBinAddr: 0x100017424, symSize: 0x24 }
  - { offsetInCU: 0x1FC84, offset: 0x1FC84, size: 0x8, addend: 0x0, symName: __ZNSt3__16vectorINS_12basic_stringIcNS_11char_traitsIcEENS_9allocatorIcEEEENS4_IS6_EEEC2B8ue170006Ev, symObjAddr: 0x1445C, symBinAddr: 0x100017448, symSize: 0x2E8 }
  - { offsetInCU: 0x1FCB5, offset: 0x1FCB5, size: 0x8, addend: 0x0, symName: __ZNSt3__117__compressed_pairIPNS_12basic_stringIcNS_11char_traitsIcEENS_9allocatorIcEEEENS4_IS6_EEEC1B8ue170006IDnNS_18__default_init_tagEEEOT_OT0_, symObjAddr: 0x14744, symBinAddr: 0x100017730, symSize: 0x3C }
  - { offsetInCU: 0x1FD0D, offset: 0x1FD0D, size: 0x8, addend: 0x0, symName: __ZNSt3__117__compressed_pairIPNS_12basic_stringIcNS_11char_traitsIcEENS_9allocatorIcEEEENS4_IS6_EEEC2B8ue170006IDnNS_18__default_init_tagEEEOT_OT0_, symObjAddr: 0x14780, symBinAddr: 0x10001776C, symSize: 0x40 }
  - { offsetInCU: 0x1FD65, offset: 0x1FD65, size: 0x8, addend: 0x0, symName: __ZNSt3__122__compressed_pair_elemIPNS_12basic_stringIcNS_11char_traitsIcEENS_9allocatorIcEEEELi0ELb0EEC2B8ue170006IDnvEEOT_, symObjAddr: 0x147C0, symBinAddr: 0x1000177AC, symSize: 0x64 }
  - { offsetInCU: 0x1FDA7, offset: 0x1FDA7, size: 0x8, addend: 0x0, symName: __ZNSt3__122__compressed_pair_elemINS_9allocatorINS_12basic_stringIcNS_11char_traitsIcEENS1_IcEEEEEELi1ELb1EEC2B8ue170006ENS_18__default_init_tagE, symObjAddr: 0x14824, symBinAddr: 0x100017810, symSize: 0x2C }
  - { offsetInCU: 0x1FDDC, offset: 0x1FDDC, size: 0x8, addend: 0x0, symName: __ZNSt3__19allocatorINS_12basic_stringIcNS_11char_traitsIcEENS0_IcEEEEEC2B8ue170006Ev, symObjAddr: 0x14850, symBinAddr: 0x10001783C, symSize: 0x2C }
  - { offsetInCU: 0x1FE06, offset: 0x1FE06, size: 0x8, addend: 0x0, symName: __ZNSt3__116__non_trivial_ifILb1ENS_9allocatorINS_12basic_stringIcNS_11char_traitsIcEENS1_IcEEEEEEEC2B8ue170006Ev, symObjAddr: 0x1487C, symBinAddr: 0x100017868, symSize: 0x14 }
  - { offsetInCU: 0x1FE30, offset: 0x1FE30, size: 0x8, addend: 0x0, symName: __ZNSt3__112basic_stringIcNS_11char_traitsIcEENS_9allocatorIcEEEC1B8ue170006Ev, symObjAddr: 0x14890, symBinAddr: 0x10001787C, symSize: 0x2C }
  - { offsetInCU: 0x1FE5A, offset: 0x1FE5A, size: 0x8, addend: 0x0, symName: __ZNSt3__112basic_stringIcNS_11char_traitsIcEENS_9allocatorIcEEE5beginB8ue170006Ev, symObjAddr: 0x148BC, symBinAddr: 0x1000178A8, symSize: 0x258 }
  - { offsetInCU: 0x1FE81, offset: 0x1FE81, size: 0x8, addend: 0x0, symName: __ZNSt3__112basic_stringIcNS_11char_traitsIcEENS_9allocatorIcEEE3endB8ue170006Ev, symObjAddr: 0x14B14, symBinAddr: 0x100017B00, symSize: 0x25C }
  - { offsetInCU: 0x1FEA8, offset: 0x1FEA8, size: 0x8, addend: 0x0, symName: __ZNKSt3__111__wrap_iterIPcEdeB8ue170006Ev, symObjAddr: 0x14DA4, symBinAddr: 0x100017D90, symSize: 0x60 }
  - { offsetInCU: 0x1FECE, offset: 0x1FECE, size: 0x8, addend: 0x0, symName: __ZNKSt3__112basic_stringIcNS_11char_traitsIcEENS_9allocatorIcEEE5emptyB8ue170006Ev, symObjAddr: 0x14E04, symBinAddr: 0x100017DF0, symSize: 0x30 }
  - { offsetInCU: 0x1FEF4, offset: 0x1FEF4, size: 0x8, addend: 0x0, symName: __ZNSt3__18multisetINS_12basic_stringIcNS_11char_traitsIcEENS_9allocatorIcEEEENS_4lessIS6_EENS4_IS6_EEE6insertB8ue170006ERKS6_, symObjAddr: 0x14E34, symBinAddr: 0x100017E20, symSize: 0x2BC }
  - { offsetInCU: 0x1FF2B, offset: 0x1FF2B, size: 0x8, addend: 0x0, symName: __ZNSt3__16vectorINS_12basic_stringIcNS_11char_traitsIcEENS_9allocatorIcEEEENS4_IS6_EEE9push_backB8ue170006ERKS6_, symObjAddr: 0x150F0, symBinAddr: 0x1000180DC, symSize: 0xE0 }
  - { offsetInCU: 0x1FF62, offset: 0x1FF62, size: 0x8, addend: 0x0, symName: __ZNSt3__112basic_stringIcNS_11char_traitsIcEENS_9allocatorIcEEE5clearB8ue170006Ev, symObjAddr: 0x151D0, symBinAddr: 0x1000181BC, symSize: 0x30C }
  - { offsetInCU: 0x1FF8B, offset: 0x1FF8B, size: 0x8, addend: 0x0, symName: __ZNSt3__112basic_stringIcNS_11char_traitsIcEENS_9allocatorIcEEEpLB8ue170006Ec, symObjAddr: 0x15500, symBinAddr: 0x1000184EC, symSize: 0x34 }
  - { offsetInCU: 0x1FFC0, offset: 0x1FFC0, size: 0x8, addend: 0x0, symName: __ZNSt3__111__wrap_iterIPcEppB8ue170006Ev, symObjAddr: 0x15534, symBinAddr: 0x100018520, symSize: 0x68 }
  - { offsetInCU: 0x1FFE6, offset: 0x1FFE6, size: 0x8, addend: 0x0, symName: __ZNSt3__112basic_stringIcNS_11char_traitsIcEENS_9allocatorIcEEEC2B8ue170006Ev, symObjAddr: 0x1559C, symBinAddr: 0x100018588, symSize: 0x20C }
  - { offsetInCU: 0x20011, offset: 0x20011, size: 0x8, addend: 0x0, symName: __ZNSt3__112basic_stringIcNS_11char_traitsIcEENS_9allocatorIcEEE14__default_initB8ue170006Ev, symObjAddr: 0x157A8, symBinAddr: 0x100018794, symSize: 0x22C }
  - { offsetInCU: 0x20038, offset: 0x20038, size: 0x8, addend: 0x0, symName: __ZNSt3__117__compressed_pairINS_12basic_stringIcNS_11char_traitsIcEENS_9allocatorIcEEE5__repES5_E5firstB8ue170006Ev, symObjAddr: 0x159D4, symBinAddr: 0x1000189C0, symSize: 0x24 }
  - { offsetInCU: 0x2005E, offset: 0x2005E, size: 0x8, addend: 0x0, symName: __ZNSt3__122__compressed_pair_elemINS_12basic_stringIcNS_11char_traitsIcEENS_9allocatorIcEEE5__repELi0ELb0EE5__getB8ue170006Ev, symObjAddr: 0x159F8, symBinAddr: 0x1000189E4, symSize: 0x14 }
  - { offsetInCU: 0x20084, offset: 0x20084, size: 0x8, addend: 0x0, symName: __ZNSt3__112basic_stringIcNS_11char_traitsIcEENS_9allocatorIcEEE15__make_iteratorB8ue170006EPc, symObjAddr: 0x15A0C, symBinAddr: 0x1000189F8, symSize: 0x1FC }
  - { offsetInCU: 0x200BB, offset: 0x200BB, size: 0x8, addend: 0x0, symName: __ZNSt3__112basic_stringIcNS_11char_traitsIcEENS_9allocatorIcEEE13__get_pointerB8ue170006Ev, symObjAddr: 0x15C08, symBinAddr: 0x100018BF4, symSize: 0x54 }
  - { offsetInCU: 0x200E1, offset: 0x200E1, size: 0x8, addend: 0x0, symName: __ZNSt3__111__wrap_iterIPcEC1B8ue170006ES1_, symObjAddr: 0x15C5C, symBinAddr: 0x100018C48, symSize: 0x34 }
  - { offsetInCU: 0x20119, offset: 0x20119, size: 0x8, addend: 0x0, symName: __ZNSt3__111__wrap_iterIPcEC2B8ue170006ES1_, symObjAddr: 0x15C90, symBinAddr: 0x100018C7C, symSize: 0x70 }
  - { offsetInCU: 0x20151, offset: 0x20151, size: 0x8, addend: 0x0, symName: __ZNKSt3__112basic_stringIcNS_11char_traitsIcEENS_9allocatorIcEEE9__is_longB8ue170006Ev, symObjAddr: 0x15D00, symBinAddr: 0x100018CEC, symSize: 0xA4 }
  - { offsetInCU: 0x20177, offset: 0x20177, size: 0x8, addend: 0x0, symName: __ZNSt3__112basic_stringIcNS_11char_traitsIcEENS_9allocatorIcEEE18__get_long_pointerB8ue170006Ev, symObjAddr: 0x15DA4, symBinAddr: 0x100018D90, symSize: 0x6C }
  - { offsetInCU: 0x2019D, offset: 0x2019D, size: 0x8, addend: 0x0, symName: __ZNSt3__112basic_stringIcNS_11char_traitsIcEENS_9allocatorIcEEE19__get_short_pointerB8ue170006Ev, symObjAddr: 0x15E10, symBinAddr: 0x100018DFC, symSize: 0x28 }
  - { offsetInCU: 0x201C3, offset: 0x201C3, size: 0x8, addend: 0x0, symName: __ZNKSt3__117__compressed_pairINS_12basic_stringIcNS_11char_traitsIcEENS_9allocatorIcEEE5__repES5_E5firstB8ue170006Ev, symObjAddr: 0x15E38, symBinAddr: 0x100018E24, symSize: 0x24 }
  - { offsetInCU: 0x201E9, offset: 0x201E9, size: 0x8, addend: 0x0, symName: __ZNKSt3__122__compressed_pair_elemINS_12basic_stringIcNS_11char_traitsIcEENS_9allocatorIcEEE5__repELi0ELb0EE5__getB8ue170006Ev, symObjAddr: 0x15E5C, symBinAddr: 0x100018E48, symSize: 0x14 }
  - { offsetInCU: 0x2020F, offset: 0x2020F, size: 0x8, addend: 0x0, symName: __ZNSt3__114pointer_traitsIPcE10pointer_toB8ue170006ERc, symObjAddr: 0x15E70, symBinAddr: 0x100018E5C, symSize: 0x14 }
  - { offsetInCU: 0x20232, offset: 0x20232, size: 0x8, addend: 0x0, symName: __ZNKSt3__112basic_stringIcNS_11char_traitsIcEENS_9allocatorIcEEE4sizeB8ue170006Ev, symObjAddr: 0x15E84, symBinAddr: 0x100018E70, symSize: 0x54 }
  - { offsetInCU: 0x20258, offset: 0x20258, size: 0x8, addend: 0x0, symName: __ZNKSt3__112basic_stringIcNS_11char_traitsIcEENS_9allocatorIcEEE15__get_long_sizeB8ue170006Ev, symObjAddr: 0x15ED8, symBinAddr: 0x100018EC4, symSize: 0x70 }
  - { offsetInCU: 0x2027E, offset: 0x2027E, size: 0x8, addend: 0x0, symName: __ZNKSt3__112basic_stringIcNS_11char_traitsIcEENS_9allocatorIcEEE16__get_short_sizeB8ue170006Ev, symObjAddr: 0x15F48, symBinAddr: 0x100018F34, symSize: 0xA0 }
  - { offsetInCU: 0x202A4, offset: 0x202A4, size: 0x8, addend: 0x0, symName: __ZNKSt3__111__wrap_iterIPcE4baseB8ue170006Ev, symObjAddr: 0x16030, symBinAddr: 0x10001901C, symSize: 0x60 }
  - { offsetInCU: 0x202CA, offset: 0x202CA, size: 0x8, addend: 0x0, symName: __ZNSt3__16__treeINS_12basic_stringIcNS_11char_traitsIcEENS_9allocatorIcEEEENS_4lessIS6_EENS4_IS6_EEE14__insert_multiB8ue170006IRKS6_EENS_15__tree_iteratorIS6_PNS_11__tree_nodeIS6_PvEElEEOT_, symObjAddr: 0x16090, symBinAddr: 0x10001907C, symSize: 0x23C }
  - { offsetInCU: 0x2030A, offset: 0x2030A, size: 0x8, addend: 0x0, symName: __ZNSt3__121__tree_const_iteratorINS_12basic_stringIcNS_11char_traitsIcEENS_9allocatorIcEEEEPNS_11__tree_nodeIS6_PvEElEC1B8ue170006ENS_15__tree_iteratorIS6_SA_lEE, symObjAddr: 0x162CC, symBinAddr: 0x1000192B8, symSize: 0x238 }
  - { offsetInCU: 0x20348, offset: 0x20348, size: 0x8, addend: 0x0, symName: __ZNSt3__16__treeINS_12basic_stringIcNS_11char_traitsIcEENS_9allocatorIcEEEENS_4lessIS6_EENS4_IS6_EEE15__emplace_multiIJRKS6_EEENS_15__tree_iteratorIS6_PNS_11__tree_nodeIS6_PvEElEEDpOT_, symObjAddr: 0x16504, symBinAddr: 0x1000194F0, symSize: 0x44C }
  - { offsetInCU: 0x203C3, offset: 0x203C3, size: 0x8, addend: 0x0, symName: __ZNSt3__16__treeINS_12basic_stringIcNS_11char_traitsIcEENS_9allocatorIcEEEENS_4lessIS6_EENS4_IS6_EEE16__construct_nodeIJRKS6_EEENS_10unique_ptrINS_11__tree_nodeIS6_PvEENS_22__tree_node_destructorINS4_ISH_EEEEEEDpOT_, symObjAddr: 0x16950, symBinAddr: 0x10001993C, symSize: 0x384 }
  - { offsetInCU: 0x20428, offset: 0x20428, size: 0x8, addend: 0x0, symName: __ZNSt3__16__treeINS_12basic_stringIcNS_11char_traitsIcEENS_9allocatorIcEEEENS_4lessIS6_EENS4_IS6_EEE16__find_leaf_highERPNS_15__tree_end_nodeIPNS_16__tree_node_baseIPvEEEERKS6_, symObjAddr: 0x16CD4, symBinAddr: 0x100019CC0, symSize: 0x34C }
  - { offsetInCU: 0x2047D, offset: 0x2047D, size: 0x8, addend: 0x0, symName: __ZNSt3__122__tree_key_value_typesINS_12basic_stringIcNS_11char_traitsIcEENS_9allocatorIcEEEEE9__get_keyB8ue170006ERKS6_, symObjAddr: 0x17020, symBinAddr: 0x10001A00C, symSize: 0x14 }
  - { offsetInCU: 0x204A1, offset: 0x204A1, size: 0x8, addend: 0x0, symName: __ZNKSt3__110unique_ptrINS_11__tree_nodeINS_12basic_stringIcNS_11char_traitsIcEENS_9allocatorIcEEEEPvEENS_22__tree_node_destructorINS5_IS9_EEEEEptB8ue170006Ev, symObjAddr: 0x17034, symBinAddr: 0x10001A020, symSize: 0x6C }
  - { offsetInCU: 0x204C7, offset: 0x204C7, size: 0x8, addend: 0x0, symName: __ZNSt3__16__treeINS_12basic_stringIcNS_11char_traitsIcEENS_9allocatorIcEEEENS_4lessIS6_EENS4_IS6_EEE16__insert_node_atEPNS_15__tree_end_nodeIPNS_16__tree_node_baseIPvEEEERSF_SF_, symObjAddr: 0x170A0, symBinAddr: 0x10001A08C, symSize: 0x370 }
  - { offsetInCU: 0x2051C, offset: 0x2051C, size: 0x8, addend: 0x0, symName: __ZNKSt3__110unique_ptrINS_11__tree_nodeINS_12basic_stringIcNS_11char_traitsIcEENS_9allocatorIcEEEEPvEENS_22__tree_node_destructorINS5_IS9_EEEEE3getB8ue170006Ev, symObjAddr: 0x17410, symBinAddr: 0x10001A3FC, symSize: 0x6C }
  - { offsetInCU: 0x20542, offset: 0x20542, size: 0x8, addend: 0x0, symName: __ZNSt3__110unique_ptrINS_11__tree_nodeINS_12basic_stringIcNS_11char_traitsIcEENS_9allocatorIcEEEEPvEENS_22__tree_node_destructorINS5_IS9_EEEEE7releaseB8ue170006Ev, symObjAddr: 0x1747C, symBinAddr: 0x10001A468, symSize: 0xB8 }
  - { offsetInCU: 0x20577, offset: 0x20577, size: 0x8, addend: 0x0, symName: __ZNSt3__115__tree_iteratorINS_12basic_stringIcNS_11char_traitsIcEENS_9allocatorIcEEEEPNS_11__tree_nodeIS6_PvEElEC1B8ue170006ESA_, symObjAddr: 0x17534, symBinAddr: 0x10001A520, symSize: 0x34 }
  - { offsetInCU: 0x205B0, offset: 0x205B0, size: 0x8, addend: 0x0, symName: __ZNSt3__110unique_ptrINS_11__tree_nodeINS_12basic_stringIcNS_11char_traitsIcEENS_9allocatorIcEEEEPvEENS_22__tree_node_destructorINS5_IS9_EEEEED1B8ue170006Ev, symObjAddr: 0x17568, symBinAddr: 0x10001A554, symSize: 0x2C }
  - { offsetInCU: 0x205DA, offset: 0x205DA, size: 0x8, addend: 0x0, symName: __ZNSt3__16__treeINS_12basic_stringIcNS_11char_traitsIcEENS_9allocatorIcEEEENS_4lessIS6_EENS4_IS6_EEE12__node_allocB8ue170006Ev, symObjAddr: 0x17594, symBinAddr: 0x10001A580, symSize: 0x28 }
  - { offsetInCU: 0x20600, offset: 0x20600, size: 0x8, addend: 0x0, symName: __ZNSt3__116allocator_traitsINS_9allocatorINS_11__tree_nodeINS_12basic_stringIcNS_11char_traitsIcEENS1_IcEEEEPvEEEEE8allocateB8ue170006ERSA_m, symObjAddr: 0x175BC, symBinAddr: 0x10001A5A8, symSize: 0x2C }
  - { offsetInCU: 0x20633, offset: 0x20633, size: 0x8, addend: 0x0, symName: __ZNSt3__122__tree_node_destructorINS_9allocatorINS_11__tree_nodeINS_12basic_stringIcNS_11char_traitsIcEENS1_IcEEEEPvEEEEEC1B8ue170006ERSA_b, symObjAddr: 0x175E8, symBinAddr: 0x10001A5D4, symSize: 0x48 }
  - { offsetInCU: 0x20681, offset: 0x20681, size: 0x8, addend: 0x0, symName: __ZNSt3__110unique_ptrINS_11__tree_nodeINS_12basic_stringIcNS_11char_traitsIcEENS_9allocatorIcEEEEPvEENS_22__tree_node_destructorINS5_IS9_EEEEEC1B8ue170006ILb1EvEEPS9_NS_16__dependent_typeINS_27__unique_ptr_deleter_sfinaeISC_EEXT_EE20__good_rval_ref_typeE, symObjAddr: 0x17630, symBinAddr: 0x10001A61C, symSize: 0x3C }
  - { offsetInCU: 0x206D2, offset: 0x206D2, size: 0x8, addend: 0x0, symName: __ZNSt3__116allocator_traitsINS_9allocatorINS_11__tree_nodeINS_12basic_stringIcNS_11char_traitsIcEENS1_IcEEEEPvEEEEE9constructB8ue170006IS7_JRKS7_EvvEEvRSA_PT_DpOT0_, symObjAddr: 0x1766C, symBinAddr: 0x10001A658, symSize: 0x30 }
  - { offsetInCU: 0x20726, offset: 0x20726, size: 0x8, addend: 0x0, symName: __ZNSt3__122__tree_key_value_typesINS_12basic_stringIcNS_11char_traitsIcEENS_9allocatorIcEEEEE9__get_ptrB8ue170006ERS6_, symObjAddr: 0x1769C, symBinAddr: 0x10001A688, symSize: 0x14 }
  - { offsetInCU: 0x2074A, offset: 0x2074A, size: 0x8, addend: 0x0, symName: __ZNSt3__110unique_ptrINS_11__tree_nodeINS_12basic_stringIcNS_11char_traitsIcEENS_9allocatorIcEEEEPvEENS_22__tree_node_destructorINS5_IS9_EEEEE11get_deleterB8ue170006Ev, symObjAddr: 0x176B0, symBinAddr: 0x10001A69C, symSize: 0x24 }
  - { offsetInCU: 0x20770, offset: 0x20770, size: 0x8, addend: 0x0, symName: __ZNSt3__117__compressed_pairINS_15__tree_end_nodeIPNS_16__tree_node_baseIPvEEEENS_9allocatorINS_11__tree_nodeINS_12basic_stringIcNS_11char_traitsIcEENS7_IcEEEES3_EEEEE6secondB8ue170006Ev, symObjAddr: 0x176D4, symBinAddr: 0x10001A6C0, symSize: 0x24 }
  - { offsetInCU: 0x20796, offset: 0x20796, size: 0x8, addend: 0x0, symName: __ZNSt3__122__compressed_pair_elemINS_9allocatorINS_11__tree_nodeINS_12basic_stringIcNS_11char_traitsIcEENS1_IcEEEEPvEEEELi1ELb1EE5__getB8ue170006Ev, symObjAddr: 0x176F8, symBinAddr: 0x10001A6E4, symSize: 0x14 }
  - { offsetInCU: 0x207BC, offset: 0x207BC, size: 0x8, addend: 0x0, symName: __ZNSt3__19allocatorINS_11__tree_nodeINS_12basic_stringIcNS_11char_traitsIcEENS0_IcEEEEPvEEE8allocateB8ue170006Em, symObjAddr: 0x1770C, symBinAddr: 0x10001A6F8, symSize: 0x60 }
  - { offsetInCU: 0x207FB, offset: 0x207FB, size: 0x8, addend: 0x0, symName: __ZNSt3__116allocator_traitsINS_9allocatorINS_11__tree_nodeINS_12basic_stringIcNS_11char_traitsIcEENS1_IcEEEEPvEEEEE8max_sizeB8ue170006ISA_vvEEmRKSA_, symObjAddr: 0x1776C, symBinAddr: 0x10001A758, symSize: 0x28 }
  - { offsetInCU: 0x20826, offset: 0x20826, size: 0x8, addend: 0x0, symName: __ZNSt3__114numeric_limitsImE3maxB8ue170006Ev, symObjAddr: 0x1782C, symBinAddr: 0x10001A818, symSize: 0x14 }
  - { offsetInCU: 0x2083A, offset: 0x2083A, size: 0x8, addend: 0x0, symName: __ZNSt3__123__libcpp_numeric_limitsImLb1EE3maxB8ue170006Ev, symObjAddr: 0x17840, symBinAddr: 0x10001A82C, symSize: 0x8 }
  - { offsetInCU: 0x2084E, offset: 0x2084E, size: 0x8, addend: 0x0, symName: __ZNSt3__122__tree_node_destructorINS_9allocatorINS_11__tree_nodeINS_12basic_stringIcNS_11char_traitsIcEENS1_IcEEEEPvEEEEEC2B8ue170006ERSA_b, symObjAddr: 0x178B8, symBinAddr: 0x10001A8A4, symSize: 0xF0 }
  - { offsetInCU: 0x20896, offset: 0x20896, size: 0x8, addend: 0x0, symName: __ZNSt3__110unique_ptrINS_11__tree_nodeINS_12basic_stringIcNS_11char_traitsIcEENS_9allocatorIcEEEEPvEENS_22__tree_node_destructorINS5_IS9_EEEEEC2B8ue170006ILb1EvEEPS9_NS_16__dependent_typeINS_27__unique_ptr_deleter_sfinaeISC_EEXT_EE20__good_rval_ref_typeE, symObjAddr: 0x179A8, symBinAddr: 0x10001A994, symSize: 0x21C }
  - { offsetInCU: 0x208ED, offset: 0x208ED, size: 0x8, addend: 0x0, symName: __ZNSt3__117__compressed_pairIPNS_11__tree_nodeINS_12basic_stringIcNS_11char_traitsIcEENS_9allocatorIcEEEEPvEENS_22__tree_node_destructorINS5_IS9_EEEEEC1B8ue170006IRSA_SD_EEOT_OT0_, symObjAddr: 0x17BC4, symBinAddr: 0x10001ABB0, symSize: 0x3C }
  - { offsetInCU: 0x20945, offset: 0x20945, size: 0x8, addend: 0x0, symName: __ZNSt3__117__compressed_pairIPNS_11__tree_nodeINS_12basic_stringIcNS_11char_traitsIcEENS_9allocatorIcEEEEPvEENS_22__tree_node_destructorINS5_IS9_EEEEEC2B8ue170006IRSA_SD_EEOT_OT0_, symObjAddr: 0x17C00, symBinAddr: 0x10001ABEC, symSize: 0x48 }
  - { offsetInCU: 0x2099D, offset: 0x2099D, size: 0x8, addend: 0x0, symName: __ZNSt3__122__compressed_pair_elemIPNS_11__tree_nodeINS_12basic_stringIcNS_11char_traitsIcEENS_9allocatorIcEEEEPvEELi0ELb0EEC2B8ue170006IRSA_vEEOT_, symObjAddr: 0x17C48, symBinAddr: 0x10001AC34, symSize: 0xB0 }
  - { offsetInCU: 0x209DF, offset: 0x209DF, size: 0x8, addend: 0x0, symName: __ZNSt3__122__compressed_pair_elemINS_22__tree_node_destructorINS_9allocatorINS_11__tree_nodeINS_12basic_stringIcNS_11char_traitsIcEENS2_IcEEEEPvEEEEEELi1ELb0EEC2B8ue170006ISC_vEEOT_, symObjAddr: 0x17CF8, symBinAddr: 0x10001ACE4, symSize: 0x38 }
  - { offsetInCU: 0x20A21, offset: 0x20A21, size: 0x8, addend: 0x0, symName: __ZNSt3__117__compressed_pairIPNS_11__tree_nodeINS_12basic_stringIcNS_11char_traitsIcEENS_9allocatorIcEEEEPvEENS_22__tree_node_destructorINS5_IS9_EEEEE6secondB8ue170006Ev, symObjAddr: 0x17D6C, symBinAddr: 0x10001AD58, symSize: 0x28 }
  - { offsetInCU: 0x20A47, offset: 0x20A47, size: 0x8, addend: 0x0, symName: __ZNSt3__122__compressed_pair_elemINS_22__tree_node_destructorINS_9allocatorINS_11__tree_nodeINS_12basic_stringIcNS_11char_traitsIcEENS2_IcEEEEPvEEEEEELi1ELb0EE5__getB8ue170006Ev, symObjAddr: 0x17D94, symBinAddr: 0x10001AD80, symSize: 0x14 }
  - { offsetInCU: 0x20A6D, offset: 0x20A6D, size: 0x8, addend: 0x0, symName: __ZNKSt3__16__treeINS_12basic_stringIcNS_11char_traitsIcEENS_9allocatorIcEEEENS_4lessIS6_EENS4_IS6_EEE6__rootB8ue170006Ev, symObjAddr: 0x17DA8, symBinAddr: 0x10001AD94, symSize: 0x6C }
  - { offsetInCU: 0x20A93, offset: 0x20A93, size: 0x8, addend: 0x0, symName: __ZNSt3__16__treeINS_12basic_stringIcNS_11char_traitsIcEENS_9allocatorIcEEEENS_4lessIS6_EENS4_IS6_EEE10value_compB8ue170006Ev, symObjAddr: 0x17E14, symBinAddr: 0x10001AE00, symSize: 0x28 }
  - { offsetInCU: 0x20AB9, offset: 0x20AB9, size: 0x8, addend: 0x0, symName: __ZNKSt3__14lessINS_12basic_stringIcNS_11char_traitsIcEENS_9allocatorIcEEEEEclB8ue170006ERKS6_S9_, symObjAddr: 0x17E3C, symBinAddr: 0x10001AE28, symSize: 0x2AC }
  - { offsetInCU: 0x20B00, offset: 0x20B00, size: 0x8, addend: 0x0, symName: __ZNKSt3__16__treeINS_12basic_stringIcNS_11char_traitsIcEENS_9allocatorIcEEEENS_4lessIS6_EENS4_IS6_EEE10__end_nodeB8ue170006Ev, symObjAddr: 0x180E8, symBinAddr: 0x10001B0D4, symSize: 0x2C }
  - { offsetInCU: 0x20B26, offset: 0x20B26, size: 0x8, addend: 0x0, symName: __ZNKSt3__117__compressed_pairINS_15__tree_end_nodeIPNS_16__tree_node_baseIPvEEEENS_9allocatorINS_11__tree_nodeINS_12basic_stringIcNS_11char_traitsIcEENS7_IcEEEES3_EEEEE5firstB8ue170006Ev, symObjAddr: 0x18114, symBinAddr: 0x10001B100, symSize: 0x24 }
  - { offsetInCU: 0x20B4C, offset: 0x20B4C, size: 0x8, addend: 0x0, symName: __ZNKSt3__122__compressed_pair_elemINS_15__tree_end_nodeIPNS_16__tree_node_baseIPvEEEELi0ELb0EE5__getB8ue170006Ev, symObjAddr: 0x18138, symBinAddr: 0x10001B124, symSize: 0x14 }
  - { offsetInCU: 0x20B72, offset: 0x20B72, size: 0x8, addend: 0x0, symName: __ZNSt3__117__compressed_pairImNS_4lessINS_12basic_stringIcNS_11char_traitsIcEENS_9allocatorIcEEEEEEE6secondB8ue170006Ev, symObjAddr: 0x1814C, symBinAddr: 0x10001B138, symSize: 0x24 }
  - { offsetInCU: 0x20B98, offset: 0x20B98, size: 0x8, addend: 0x0, symName: __ZNSt3__122__compressed_pair_elemINS_4lessINS_12basic_stringIcNS_11char_traitsIcEENS_9allocatorIcEEEEEELi1ELb1EE5__getB8ue170006Ev, symObjAddr: 0x18170, symBinAddr: 0x10001B15C, symSize: 0x14 }
  - { offsetInCU: 0x20BCE, offset: 0x20BCE, size: 0x8, addend: 0x0, symName: __ZNSt3__120_CmpUnspecifiedParamC1B8ue170006EMS0_i, symObjAddr: 0x187A4, symBinAddr: 0x10001B790, symSize: 0x34 }
  - { offsetInCU: 0x20C03, offset: 0x20C03, size: 0x8, addend: 0x0, symName: __ZNKSt3__112basic_stringIcNS_11char_traitsIcEENS_9allocatorIcEEEcvNS_17basic_string_viewIcS2_EEB8ue170006Ev, symObjAddr: 0x18BC0, symBinAddr: 0x10001BBAC, symSize: 0x228 }
  - { offsetInCU: 0x20C2A, offset: 0x20C2A, size: 0x8, addend: 0x0, symName: __ZNKSt3__117basic_string_viewIcNS_11char_traitsIcEEE7compareES3_, symObjAddr: 0x18DE8, symBinAddr: 0x10001BDD4, symSize: 0x434 }
  - { offsetInCU: 0x20C84, offset: 0x20C84, size: 0x8, addend: 0x0, symName: __ZNKSt3__117basic_string_viewIcNS_11char_traitsIcEEE4sizeB8ue170006Ev, symObjAddr: 0x19248, symBinAddr: 0x10001C234, symSize: 0x64 }
  - { offsetInCU: 0x20CAA, offset: 0x20CAA, size: 0x8, addend: 0x0, symName: __ZNSt3__111char_traitsIcE7compareB8ue170006EPKcS3_m, symObjAddr: 0x192AC, symBinAddr: 0x10001C298, symSize: 0x34 }
  - { offsetInCU: 0x20CE9, offset: 0x20CE9, size: 0x8, addend: 0x0, symName: __ZNKSt3__117basic_string_viewIcNS_11char_traitsIcEEE4dataB8ue170006Ev, symObjAddr: 0x192E0, symBinAddr: 0x10001C2CC, symSize: 0x60 }
  - { offsetInCU: 0x20D1A, offset: 0x20D1A, size: 0x8, addend: 0x0, symName: __ZNKSt3__16__lessIvvEclB8ue170006ImmEEbRKT_RKT0_, symObjAddr: 0x19528, symBinAddr: 0x10001C514, symSize: 0xBC }
  - { offsetInCU: 0x20D6E, offset: 0x20D6E, size: 0x8, addend: 0x0, symName: __ZNKSt3__112basic_stringIcNS_11char_traitsIcEENS_9allocatorIcEEE4dataB8ue170006Ev, symObjAddr: 0x195E4, symBinAddr: 0x10001C5D0, symSize: 0x28 }
  - { offsetInCU: 0x20D94, offset: 0x20D94, size: 0x8, addend: 0x0, symName: __ZNSt3__117basic_string_viewIcNS_11char_traitsIcEEEC1B8ue170006EPKcm, symObjAddr: 0x1960C, symBinAddr: 0x10001C5F8, symSize: 0x3C }
  - { offsetInCU: 0x20DDC, offset: 0x20DDC, size: 0x8, addend: 0x0, symName: __ZNKSt3__112basic_stringIcNS_11char_traitsIcEENS_9allocatorIcEEE13__get_pointerB8ue170006Ev, symObjAddr: 0x1965C, symBinAddr: 0x10001C648, symSize: 0x54 }
  - { offsetInCU: 0x20E02, offset: 0x20E02, size: 0x8, addend: 0x0, symName: __ZNKSt3__112basic_stringIcNS_11char_traitsIcEENS_9allocatorIcEEE18__get_long_pointerB8ue170006Ev, symObjAddr: 0x196B0, symBinAddr: 0x10001C69C, symSize: 0x6C }
  - { offsetInCU: 0x20E28, offset: 0x20E28, size: 0x8, addend: 0x0, symName: __ZNKSt3__112basic_stringIcNS_11char_traitsIcEENS_9allocatorIcEEE19__get_short_pointerB8ue170006Ev, symObjAddr: 0x1971C, symBinAddr: 0x10001C708, symSize: 0x28 }
  - { offsetInCU: 0x20E4E, offset: 0x20E4E, size: 0x8, addend: 0x0, symName: __ZNSt3__114pointer_traitsIPKcE10pointer_toB8ue170006ERS1_, symObjAddr: 0x19744, symBinAddr: 0x10001C730, symSize: 0x14 }
  - { offsetInCU: 0x20E71, offset: 0x20E71, size: 0x8, addend: 0x0, symName: __ZNSt3__117basic_string_viewIcNS_11char_traitsIcEEEC2B8ue170006EPKcm, symObjAddr: 0x19758, symBinAddr: 0x10001C744, symSize: 0xBC }
  - { offsetInCU: 0x20EB9, offset: 0x20EB9, size: 0x8, addend: 0x0, symName: __ZNSt3__120_CmpUnspecifiedParamC2B8ue170006EMS0_i, symObjAddr: 0x19814, symBinAddr: 0x10001C800, symSize: 0x18 }
  - { offsetInCU: 0x20EEE, offset: 0x20EEE, size: 0x8, addend: 0x0, symName: __ZNKSt3__117__compressed_pairIPNS_11__tree_nodeINS_12basic_stringIcNS_11char_traitsIcEENS_9allocatorIcEEEEPvEENS_22__tree_node_destructorINS5_IS9_EEEEE5firstB8ue170006Ev, symObjAddr: 0x1982C, symBinAddr: 0x10001C818, symSize: 0x24 }
  - { offsetInCU: 0x20F14, offset: 0x20F14, size: 0x8, addend: 0x0, symName: __ZNKSt3__122__compressed_pair_elemIPNS_11__tree_nodeINS_12basic_stringIcNS_11char_traitsIcEENS_9allocatorIcEEEEPvEELi0ELb0EE5__getB8ue170006Ev, symObjAddr: 0x19850, symBinAddr: 0x10001C83C, symSize: 0x14 }
  - { offsetInCU: 0x20F3A, offset: 0x20F3A, size: 0x8, addend: 0x0, symName: __ZNSt3__16__treeINS_12basic_stringIcNS_11char_traitsIcEENS_9allocatorIcEEEENS_4lessIS6_EENS4_IS6_EEE4sizeB8ue170006Ev, symObjAddr: 0x1A1C4, symBinAddr: 0x10001D1B0, symSize: 0x28 }
  - { offsetInCU: 0x20F60, offset: 0x20F60, size: 0x8, addend: 0x0, symName: __ZNKSt3__116__tree_node_baseIPvE15__parent_unsafeB8ue170006Ev, symObjAddr: 0x1A1EC, symBinAddr: 0x10001D1D8, symSize: 0x64 }
  - { offsetInCU: 0x20F86, offset: 0x20F86, size: 0x8, addend: 0x0, symName: __ZNSt3__116__tree_node_baseIPvE12__set_parentB8ue170006EPS2_, symObjAddr: 0x1A9D0, symBinAddr: 0x10001D9BC, symSize: 0x74 }
  - { offsetInCU: 0x20FBB, offset: 0x20FBB, size: 0x8, addend: 0x0, symName: __ZNSt3__117__compressed_pairImNS_4lessINS_12basic_stringIcNS_11char_traitsIcEENS_9allocatorIcEEEEEEE5firstB8ue170006Ev, symObjAddr: 0x1AA44, symBinAddr: 0x10001DA30, symSize: 0x24 }
  - { offsetInCU: 0x20FE1, offset: 0x20FE1, size: 0x8, addend: 0x0, symName: __ZNSt3__122__compressed_pair_elemImLi0ELb0EE5__getB8ue170006Ev, symObjAddr: 0x1AA68, symBinAddr: 0x10001DA54, symSize: 0x14 }
  - { offsetInCU: 0x21007, offset: 0x21007, size: 0x8, addend: 0x0, symName: __ZNSt3__117__compressed_pairIPNS_11__tree_nodeINS_12basic_stringIcNS_11char_traitsIcEENS_9allocatorIcEEEEPvEENS_22__tree_node_destructorINS5_IS9_EEEEE5firstB8ue170006Ev, symObjAddr: 0x1AA7C, symBinAddr: 0x10001DA68, symSize: 0x24 }
  - { offsetInCU: 0x2102D, offset: 0x2102D, size: 0x8, addend: 0x0, symName: __ZNSt3__122__compressed_pair_elemIPNS_11__tree_nodeINS_12basic_stringIcNS_11char_traitsIcEENS_9allocatorIcEEEEPvEELi0ELb0EE5__getB8ue170006Ev, symObjAddr: 0x1AAA0, symBinAddr: 0x10001DA8C, symSize: 0x14 }
  - { offsetInCU: 0x21053, offset: 0x21053, size: 0x8, addend: 0x0, symName: __ZNSt3__115__tree_iteratorINS_12basic_stringIcNS_11char_traitsIcEENS_9allocatorIcEEEEPNS_11__tree_nodeIS6_PvEElEC2B8ue170006ESA_, symObjAddr: 0x1AAB4, symBinAddr: 0x10001DAA0, symSize: 0x70 }
  - { offsetInCU: 0x2108C, offset: 0x2108C, size: 0x8, addend: 0x0, symName: __ZNSt3__110unique_ptrINS_11__tree_nodeINS_12basic_stringIcNS_11char_traitsIcEENS_9allocatorIcEEEEPvEENS_22__tree_node_destructorINS5_IS9_EEEEED2B8ue170006Ev, symObjAddr: 0x1AB24, symBinAddr: 0x10001DB10, symSize: 0x30 }
  - { offsetInCU: 0x210B6, offset: 0x210B6, size: 0x8, addend: 0x0, symName: __ZNSt3__110unique_ptrINS_11__tree_nodeINS_12basic_stringIcNS_11char_traitsIcEENS_9allocatorIcEEEEPvEENS_22__tree_node_destructorINS5_IS9_EEEEE5resetB8ue170006EPS9_, symObjAddr: 0x1AB54, symBinAddr: 0x10001DB40, symSize: 0xEC }
  - { offsetInCU: 0x210FA, offset: 0x210FA, size: 0x8, addend: 0x0, symName: __ZNSt3__122__tree_node_destructorINS_9allocatorINS_11__tree_nodeINS_12basic_stringIcNS_11char_traitsIcEENS1_IcEEEEPvEEEEEclB8ue170006EPS9_, symObjAddr: 0x1AC40, symBinAddr: 0x10001DC2C, symSize: 0x160 }
  - { offsetInCU: 0x2112F, offset: 0x2112F, size: 0x8, addend: 0x0, symName: __ZNSt3__116allocator_traitsINS_9allocatorINS_11__tree_nodeINS_12basic_stringIcNS_11char_traitsIcEENS1_IcEEEEPvEEEEE7destroyB8ue170006IS7_vvEEvRSA_PT_, symObjAddr: 0x1ADA0, symBinAddr: 0x10001DD8C, symSize: 0x28 }
  - { offsetInCU: 0x21169, offset: 0x21169, size: 0x8, addend: 0x0, symName: __ZNSt3__116allocator_traitsINS_9allocatorINS_11__tree_nodeINS_12basic_stringIcNS_11char_traitsIcEENS1_IcEEEEPvEEEEE10deallocateB8ue170006ERSA_PS9_m, symObjAddr: 0x1ADC8, symBinAddr: 0x10001DDB4, symSize: 0x34 }
  - { offsetInCU: 0x211AB, offset: 0x211AB, size: 0x8, addend: 0x0, symName: __ZNSt3__19allocatorINS_11__tree_nodeINS_12basic_stringIcNS_11char_traitsIcEENS0_IcEEEEPvEEE10deallocateB8ue170006EPS8_m, symObjAddr: 0x1AE44, symBinAddr: 0x10001DE30, symSize: 0x50 }
  - { offsetInCU: 0x211ED, offset: 0x211ED, size: 0x8, addend: 0x0, symName: __ZNSt3__121__tree_const_iteratorINS_12basic_stringIcNS_11char_traitsIcEENS_9allocatorIcEEEEPNS_11__tree_nodeIS6_PvEElEC2B8ue170006ENS_15__tree_iteratorIS6_SA_lEE, symObjAddr: 0x1AF9C, symBinAddr: 0x10001DF88, symSize: 0x270 }
  - { offsetInCU: 0x2122B, offset: 0x2122B, size: 0x8, addend: 0x0, symName: __ZNSt3__16vectorINS_12basic_stringIcNS_11char_traitsIcEENS_9allocatorIcEEEENS4_IS6_EEE9__end_capB8ue170006Ev, symObjAddr: 0x1B20C, symBinAddr: 0x10001E1F8, symSize: 0x28 }
  - { offsetInCU: 0x21251, offset: 0x21251, size: 0x8, addend: 0x0, symName: __ZNSt3__16vectorINS_12basic_stringIcNS_11char_traitsIcEENS_9allocatorIcEEEENS4_IS6_EEE22__construct_one_at_endB8ue170006IJRKS6_EEEvDpOT_, symObjAddr: 0x1B234, symBinAddr: 0x10001E220, symSize: 0x36C }
  - { offsetInCU: 0x212A6, offset: 0x212A6, size: 0x8, addend: 0x0, symName: __ZNSt3__16vectorINS_12basic_stringIcNS_11char_traitsIcEENS_9allocatorIcEEEENS4_IS6_EEE21__push_back_slow_pathIRKS6_EEvOT_, symObjAddr: 0x1B5A0, symBinAddr: 0x10001E58C, symSize: 0x3C0 }
  - { offsetInCU: 0x2130B, offset: 0x2130B, size: 0x8, addend: 0x0, symName: __ZNSt3__117__compressed_pairIPNS_12basic_stringIcNS_11char_traitsIcEENS_9allocatorIcEEEENS4_IS6_EEE5firstB8ue170006Ev, symObjAddr: 0x1B960, symBinAddr: 0x10001E94C, symSize: 0x24 }
  - { offsetInCU: 0x21331, offset: 0x21331, size: 0x8, addend: 0x0, symName: __ZNSt3__122__compressed_pair_elemIPNS_12basic_stringIcNS_11char_traitsIcEENS_9allocatorIcEEEELi0ELb0EE5__getB8ue170006Ev, symObjAddr: 0x1B984, symBinAddr: 0x10001E970, symSize: 0x14 }
  - { offsetInCU: 0x21373, offset: 0x21373, size: 0x8, addend: 0x0, symName: __ZNSt3__16vectorINS_12basic_stringIcNS_11char_traitsIcEENS_9allocatorIcEEEENS4_IS6_EEE21_ConstructTransactionC1B8ue170006ERS8_m, symObjAddr: 0x1B998, symBinAddr: 0x10001E984, symSize: 0x3C }
  - { offsetInCU: 0x213BB, offset: 0x213BB, size: 0x8, addend: 0x0, symName: __ZNSt3__116allocator_traitsINS_9allocatorINS_12basic_stringIcNS_11char_traitsIcEENS1_IcEEEEEEE9constructB8ue170006IS6_JRKS6_EvvEEvRS7_PT_DpOT0_, symObjAddr: 0x1B9D4, symBinAddr: 0x10001E9C0, symSize: 0x30 }
  - { offsetInCU: 0x2140F, offset: 0x2140F, size: 0x8, addend: 0x0, symName: __ZNSt3__16vectorINS_12basic_stringIcNS_11char_traitsIcEENS_9allocatorIcEEEENS4_IS6_EEE7__allocB8ue170006Ev, symObjAddr: 0x1BA04, symBinAddr: 0x10001E9F0, symSize: 0x28 }
  - { offsetInCU: 0x21435, offset: 0x21435, size: 0x8, addend: 0x0, symName: __ZNSt3__16vectorINS_12basic_stringIcNS_11char_traitsIcEENS_9allocatorIcEEEENS4_IS6_EEE21_ConstructTransactionD1B8ue170006Ev, symObjAddr: 0x1BA40, symBinAddr: 0x10001EA2C, symSize: 0x2C }
  - { offsetInCU: 0x2145F, offset: 0x2145F, size: 0x8, addend: 0x0, symName: __ZNSt3__16vectorINS_12basic_stringIcNS_11char_traitsIcEENS_9allocatorIcEEEENS4_IS6_EEE21_ConstructTransactionC2B8ue170006ERS8_m, symObjAddr: 0x1BA6C, symBinAddr: 0x10001EA58, symSize: 0x1D8 }
  - { offsetInCU: 0x214A7, offset: 0x214A7, size: 0x8, addend: 0x0, symName: __ZNKSt3__16vectorINS_12basic_stringIcNS_11char_traitsIcEENS_9allocatorIcEEEENS4_IS6_EEE19__annotate_increaseB8ue170006Em, symObjAddr: 0x1BC44, symBinAddr: 0x10001EC30, symSize: 0xF8 }
  - { offsetInCU: 0x214DC, offset: 0x214DC, size: 0x8, addend: 0x0, symName: __ZNKSt3__16vectorINS_12basic_stringIcNS_11char_traitsIcEENS_9allocatorIcEEEENS4_IS6_EEE31__annotate_contiguous_containerEPKvSA_SA_SA_, symObjAddr: 0x1BD3C, symBinAddr: 0x10001ED28, symSize: 0x58 }
  - { offsetInCU: 0x2153E, offset: 0x2153E, size: 0x8, addend: 0x0, symName: __ZNKSt3__16vectorINS_12basic_stringIcNS_11char_traitsIcEENS_9allocatorIcEEEENS4_IS6_EEE4dataB8ue170006Ev, symObjAddr: 0x1BD94, symBinAddr: 0x10001ED80, symSize: 0x64 }
  - { offsetInCU: 0x21564, offset: 0x21564, size: 0x8, addend: 0x0, symName: __ZNKSt3__16vectorINS_12basic_stringIcNS_11char_traitsIcEENS_9allocatorIcEEEENS4_IS6_EEE8capacityB8ue170006Ev, symObjAddr: 0x1BDF8, symBinAddr: 0x10001EDE4, symSize: 0xBC }
  - { offsetInCU: 0x2158A, offset: 0x2158A, size: 0x8, addend: 0x0, symName: __ZNKSt3__16vectorINS_12basic_stringIcNS_11char_traitsIcEENS_9allocatorIcEEEENS4_IS6_EEE4sizeB8ue170006Ev, symObjAddr: 0x1BEB4, symBinAddr: 0x10001EEA0, symSize: 0xB0 }
  - { offsetInCU: 0x215B0, offset: 0x215B0, size: 0x8, addend: 0x0, symName: __ZNKSt3__16vectorINS_12basic_stringIcNS_11char_traitsIcEENS_9allocatorIcEEEENS4_IS6_EEE9__end_capB8ue170006Ev, symObjAddr: 0x1BF64, symBinAddr: 0x10001EF50, symSize: 0x28 }
  - { offsetInCU: 0x215D6, offset: 0x215D6, size: 0x8, addend: 0x0, symName: __ZNKSt3__117__compressed_pairIPNS_12basic_stringIcNS_11char_traitsIcEENS_9allocatorIcEEEENS4_IS6_EEE5firstB8ue170006Ev, symObjAddr: 0x1BF8C, symBinAddr: 0x10001EF78, symSize: 0x24 }
  - { offsetInCU: 0x215FC, offset: 0x215FC, size: 0x8, addend: 0x0, symName: __ZNKSt3__122__compressed_pair_elemIPNS_12basic_stringIcNS_11char_traitsIcEENS_9allocatorIcEEEELi0ELb0EE5__getB8ue170006Ev, symObjAddr: 0x1BFB0, symBinAddr: 0x10001EF9C, symSize: 0x14 }
  - { offsetInCU: 0x21622, offset: 0x21622, size: 0x8, addend: 0x0, symName: __ZNSt3__117__compressed_pairIPNS_12basic_stringIcNS_11char_traitsIcEENS_9allocatorIcEEEENS4_IS6_EEE6secondB8ue170006Ev, symObjAddr: 0x1BFC4, symBinAddr: 0x10001EFB0, symSize: 0x24 }
  - { offsetInCU: 0x21648, offset: 0x21648, size: 0x8, addend: 0x0, symName: __ZNSt3__122__compressed_pair_elemINS_9allocatorINS_12basic_stringIcNS_11char_traitsIcEENS1_IcEEEEEELi1ELb1EE5__getB8ue170006Ev, symObjAddr: 0x1BFE8, symBinAddr: 0x10001EFD4, symSize: 0x14 }
  - { offsetInCU: 0x2166E, offset: 0x2166E, size: 0x8, addend: 0x0, symName: __ZNSt3__16vectorINS_12basic_stringIcNS_11char_traitsIcEENS_9allocatorIcEEEENS4_IS6_EEE21_ConstructTransactionD2B8ue170006Ev, symObjAddr: 0x1BFFC, symBinAddr: 0x10001EFE8, symSize: 0x278 }
  - { offsetInCU: 0x21698, offset: 0x21698, size: 0x8, addend: 0x0, symName: __ZNKSt3__16vectorINS_12basic_stringIcNS_11char_traitsIcEENS_9allocatorIcEEEENS4_IS6_EEE17__annotate_shrinkB8ue170006Em, symObjAddr: 0x1C274, symBinAddr: 0x10001F260, symSize: 0xE4 }
  - { offsetInCU: 0x216CD, offset: 0x216CD, size: 0x8, addend: 0x0, symName: __ZNKSt3__16vectorINS_12basic_stringIcNS_11char_traitsIcEENS_9allocatorIcEEEENS4_IS6_EEE11__recommendB8ue170006Em, symObjAddr: 0x1C358, symBinAddr: 0x10001F344, symSize: 0x384 }
  - { offsetInCU: 0x21729, offset: 0x21729, size: 0x8, addend: 0x0, symName: __ZNSt3__114__split_bufferINS_12basic_stringIcNS_11char_traitsIcEENS_9allocatorIcEEEERNS4_IS6_EEEC1EmmS8_, symObjAddr: 0x1C6DC, symBinAddr: 0x10001F6C8, symSize: 0x44 }
  - { offsetInCU: 0x2177F, offset: 0x2177F, size: 0x8, addend: 0x0, symName: __ZNSt3__114__split_bufferINS_12basic_stringIcNS_11char_traitsIcEENS_9allocatorIcEEEERNS4_IS6_EEED1Ev, symObjAddr: 0x1CC8C, symBinAddr: 0x10001FC78, symSize: 0x2C }
  - { offsetInCU: 0x217AB, offset: 0x217AB, size: 0x8, addend: 0x0, symName: __ZNKSt3__16vectorINS_12basic_stringIcNS_11char_traitsIcEENS_9allocatorIcEEEENS4_IS6_EEE8max_sizeEv, symObjAddr: 0x1CCB8, symBinAddr: 0x10001FCA4, symSize: 0x2FC }
  - { offsetInCU: 0x217D4, offset: 0x217D4, size: 0x8, addend: 0x0, symName: __ZNKSt3__16vectorINS_12basic_stringIcNS_11char_traitsIcEENS_9allocatorIcEEEENS4_IS6_EEE20__throw_length_errorB8ue170006Ev, symObjAddr: 0x1CFB4, symBinAddr: 0x10001FFA0, symSize: 0x20 }
  - { offsetInCU: 0x21805, offset: 0x21805, size: 0x8, addend: 0x0, symName: __ZNSt3__116allocator_traitsINS_9allocatorINS_12basic_stringIcNS_11char_traitsIcEENS1_IcEEEEEEE8max_sizeB8ue170006IS7_vvEEmRKS7_, symObjAddr: 0x1D000, symBinAddr: 0x10001FFEC, symSize: 0x28 }
  - { offsetInCU: 0x21830, offset: 0x21830, size: 0x8, addend: 0x0, symName: __ZNKSt3__16vectorINS_12basic_stringIcNS_11char_traitsIcEENS_9allocatorIcEEEENS4_IS6_EEE7__allocB8ue170006Ev, symObjAddr: 0x1D028, symBinAddr: 0x100020014, symSize: 0x28 }
  - { offsetInCU: 0x21856, offset: 0x21856, size: 0x8, addend: 0x0, symName: __ZNSt3__114numeric_limitsIlE3maxB8ue170006Ev, symObjAddr: 0x1D050, symBinAddr: 0x10002003C, symSize: 0x14 }
  - { offsetInCU: 0x2186A, offset: 0x2186A, size: 0x8, addend: 0x0, symName: __ZNKSt3__117__compressed_pairIPNS_12basic_stringIcNS_11char_traitsIcEENS_9allocatorIcEEEENS4_IS6_EEE6secondB8ue170006Ev, symObjAddr: 0x1D064, symBinAddr: 0x100020050, symSize: 0x24 }
  - { offsetInCU: 0x21890, offset: 0x21890, size: 0x8, addend: 0x0, symName: __ZNKSt3__122__compressed_pair_elemINS_9allocatorINS_12basic_stringIcNS_11char_traitsIcEENS1_IcEEEEEELi1ELb1EE5__getB8ue170006Ev, symObjAddr: 0x1D088, symBinAddr: 0x100020074, symSize: 0x14 }
  - { offsetInCU: 0x218B6, offset: 0x218B6, size: 0x8, addend: 0x0, symName: __ZNSt3__123__libcpp_numeric_limitsIlLb1EE3maxB8ue170006Ev, symObjAddr: 0x1D09C, symBinAddr: 0x100020088, symSize: 0x8 }
  - { offsetInCU: 0x218CA, offset: 0x218CA, size: 0x8, addend: 0x0, symName: __ZNSt12length_errorC1B8ue170006EPKc, symObjAddr: 0x1D10C, symBinAddr: 0x1000200F8, symSize: 0x34 }
  - { offsetInCU: 0x21902, offset: 0x21902, size: 0x8, addend: 0x0, symName: __ZNSt12length_errorC2B8ue170006EPKc, symObjAddr: 0x1D140, symBinAddr: 0x10002012C, symSize: 0x8C }
  - { offsetInCU: 0x2193A, offset: 0x2193A, size: 0x8, addend: 0x0, symName: __ZNSt3__114__split_bufferINS_12basic_stringIcNS_11char_traitsIcEENS_9allocatorIcEEEERNS4_IS6_EEEC2EmmS8_, symObjAddr: 0x1D3B4, symBinAddr: 0x1000203A0, symSize: 0x530 }
  - { offsetInCU: 0x219B5, offset: 0x219B5, size: 0x8, addend: 0x0, symName: __ZNSt3__117__compressed_pairIPNS_12basic_stringIcNS_11char_traitsIcEENS_9allocatorIcEEEERNS4_IS6_EEEC1B8ue170006IDnS9_EEOT_OT0_, symObjAddr: 0x1D8E4, symBinAddr: 0x1000208D0, symSize: 0x3C }
  - { offsetInCU: 0x21A0D, offset: 0x21A0D, size: 0x8, addend: 0x0, symName: __ZNSt3__114__split_bufferINS_12basic_stringIcNS_11char_traitsIcEENS_9allocatorIcEEEERNS4_IS6_EEE7__allocB8ue170006Ev, symObjAddr: 0x1DBAC, symBinAddr: 0x100020B98, symSize: 0x28 }
  - { offsetInCU: 0x21A33, offset: 0x21A33, size: 0x8, addend: 0x0, symName: __ZNSt3__114__split_bufferINS_12basic_stringIcNS_11char_traitsIcEENS_9allocatorIcEEEERNS4_IS6_EEE9__end_capB8ue170006Ev, symObjAddr: 0x1DBD4, symBinAddr: 0x100020BC0, symSize: 0x28 }
  - { offsetInCU: 0x21A59, offset: 0x21A59, size: 0x8, addend: 0x0, symName: __ZNSt3__117__compressed_pairIPNS_12basic_stringIcNS_11char_traitsIcEENS_9allocatorIcEEEERNS4_IS6_EEEC2B8ue170006IDnS9_EEOT_OT0_, symObjAddr: 0x1DBFC, symBinAddr: 0x100020BE8, symSize: 0x48 }
  - { offsetInCU: 0x21AB1, offset: 0x21AB1, size: 0x8, addend: 0x0, symName: __ZNSt3__122__compressed_pair_elemIRNS_9allocatorINS_12basic_stringIcNS_11char_traitsIcEENS1_IcEEEEEELi1ELb0EEC2B8ue170006IS8_vEEOT_, symObjAddr: 0x1DC44, symBinAddr: 0x100020C30, symSize: 0x70 }
  - { offsetInCU: 0x21AF3, offset: 0x21AF3, size: 0x8, addend: 0x0, symName: __ZNSt3__19allocatorINS_12basic_stringIcNS_11char_traitsIcEENS0_IcEEEEE8allocateB8ue170006Em, symObjAddr: 0x1DCB4, symBinAddr: 0x100020CA0, symSize: 0x60 }
  - { offsetInCU: 0x21B27, offset: 0x21B27, size: 0x8, addend: 0x0, symName: __ZNSt3__117__compressed_pairIPNS_12basic_stringIcNS_11char_traitsIcEENS_9allocatorIcEEEERNS4_IS6_EEE6secondB8ue170006Ev, symObjAddr: 0x1DD14, symBinAddr: 0x100020D00, symSize: 0x28 }
  - { offsetInCU: 0x21B4D, offset: 0x21B4D, size: 0x8, addend: 0x0, symName: __ZNSt3__122__compressed_pair_elemIRNS_9allocatorINS_12basic_stringIcNS_11char_traitsIcEENS1_IcEEEEEELi1ELb0EE5__getB8ue170006Ev, symObjAddr: 0x1DD3C, symBinAddr: 0x100020D28, symSize: 0x60 }
  - { offsetInCU: 0x21B73, offset: 0x21B73, size: 0x8, addend: 0x0, symName: __ZNSt3__117__compressed_pairIPNS_12basic_stringIcNS_11char_traitsIcEENS_9allocatorIcEEEERNS4_IS6_EEE5firstB8ue170006Ev, symObjAddr: 0x1DD9C, symBinAddr: 0x100020D88, symSize: 0x24 }
  - { offsetInCU: 0x21B99, offset: 0x21B99, size: 0x8, addend: 0x0, symName: __ZNKSt3__16vectorINS_12basic_stringIcNS_11char_traitsIcEENS_9allocatorIcEEEENS4_IS6_EEE17__annotate_deleteB8ue170006Ev, symObjAddr: 0x1DDC0, symBinAddr: 0x100020DAC, symSize: 0xE8 }
  - { offsetInCU: 0x21BBF, offset: 0x21BBF, size: 0x8, addend: 0x0, symName: __ZNSt3__116reverse_iteratorIPNS_12basic_stringIcNS_11char_traitsIcEENS_9allocatorIcEEEEEC1B8ue170006ES7_, symObjAddr: 0x1E3EC, symBinAddr: 0x1000213D8, symSize: 0x34 }
  - { offsetInCU: 0x21BF7, offset: 0x21BF7, size: 0x8, addend: 0x0, symName: __ZNKSt3__116reverse_iteratorIPNS_12basic_stringIcNS_11char_traitsIcEENS_9allocatorIcEEEEE4baseB8ue170006Ev, symObjAddr: 0x1E420, symBinAddr: 0x10002140C, symSize: 0x64 }
  - { offsetInCU: 0x21C1D, offset: 0x21C1D, size: 0x8, addend: 0x0, symName: __ZNKSt3__16vectorINS_12basic_stringIcNS_11char_traitsIcEENS_9allocatorIcEEEENS4_IS6_EEE14__annotate_newB8ue170006Em, symObjAddr: 0x1E5B8, symBinAddr: 0x1000215A4, symSize: 0xDC }
  - { offsetInCU: 0x21C52, offset: 0x21C52, size: 0x8, addend: 0x0, symName: __ZNSt3__129_AllocatorDestroyRangeReverseINS_9allocatorINS_12basic_stringIcNS_11char_traitsIcEENS1_IcEEEEEENS_16reverse_iteratorIPS6_EEEC1B8ue170006ERS7_RSA_SD_, symObjAddr: 0x1E88C, symBinAddr: 0x100021878, symSize: 0x44 }
  - { offsetInCU: 0x21CAF, offset: 0x21CAF, size: 0x8, addend: 0x0, symName: __ZNSt3__116allocator_traitsINS_9allocatorINS_12basic_stringIcNS_11char_traitsIcEENS1_IcEEEEEEE9constructB8ue170006IS6_JS6_EvvEEvRS7_PT_DpOT0_, symObjAddr: 0x1E918, symBinAddr: 0x100021904, symSize: 0x30 }
  - { offsetInCU: 0x21D03, offset: 0x21D03, size: 0x8, addend: 0x0, symName: __ZNKSt3__116reverse_iteratorIPNS_12basic_stringIcNS_11char_traitsIcEENS_9allocatorIcEEEEEdeB8ue170006Ev, symObjAddr: 0x1E96C, symBinAddr: 0x100021958, symSize: 0x74 }
  - { offsetInCU: 0x21D37, offset: 0x21D37, size: 0x8, addend: 0x0, symName: __ZNSt3__116reverse_iteratorIPNS_12basic_stringIcNS_11char_traitsIcEENS_9allocatorIcEEEEEppB8ue170006Ev, symObjAddr: 0x1E9E0, symBinAddr: 0x1000219CC, symSize: 0x6C }
  - { offsetInCU: 0x21D5D, offset: 0x21D5D, size: 0x8, addend: 0x0, symName: __ZNSt3__128__exception_guard_exceptionsINS_29_AllocatorDestroyRangeReverseINS_9allocatorINS_12basic_stringIcNS_11char_traitsIcEENS2_IcEEEEEENS_16reverse_iteratorIPS7_EEEEE10__completeB8ue170006Ev, symObjAddr: 0x1EA4C, symBinAddr: 0x100021A38, symSize: 0x8C }
  - { offsetInCU: 0x21D83, offset: 0x21D83, size: 0x8, addend: 0x0, symName: __ZNSt3__128__exception_guard_exceptionsINS_29_AllocatorDestroyRangeReverseINS_9allocatorINS_12basic_stringIcNS_11char_traitsIcEENS2_IcEEEEEENS_16reverse_iteratorIPS7_EEEEED1B8ue170006Ev, symObjAddr: 0x1EAD8, symBinAddr: 0x100021AC4, symSize: 0x2C }
  - { offsetInCU: 0x21DAD, offset: 0x21DAD, size: 0x8, addend: 0x0, symName: __ZNSt3__128__exception_guard_exceptionsINS_29_AllocatorDestroyRangeReverseINS_9allocatorINS_12basic_stringIcNS_11char_traitsIcEENS2_IcEEEEEENS_16reverse_iteratorIPS7_EEEEEC1B8ue170006ESC_, symObjAddr: 0x1EB04, symBinAddr: 0x100021AF0, symSize: 0x34 }
  - { offsetInCU: 0x21DE6, offset: 0x21DE6, size: 0x8, addend: 0x0, symName: __ZNSt3__128__exception_guard_exceptionsINS_29_AllocatorDestroyRangeReverseINS_9allocatorINS_12basic_stringIcNS_11char_traitsIcEENS2_IcEEEEEENS_16reverse_iteratorIPS7_EEEEEC2B8ue170006ESC_, symObjAddr: 0x1EB38, symBinAddr: 0x100021B24, symSize: 0xA4 }
  - { offsetInCU: 0x21E1F, offset: 0x21E1F, size: 0x8, addend: 0x0, symName: __ZNSt3__129_AllocatorDestroyRangeReverseINS_9allocatorINS_12basic_stringIcNS_11char_traitsIcEENS1_IcEEEEEENS_16reverse_iteratorIPS6_EEEC2B8ue170006ERS7_RSA_SD_, symObjAddr: 0x1EBDC, symBinAddr: 0x100021BC8, symSize: 0x104 }
  - { offsetInCU: 0x21E76, offset: 0x21E76, size: 0x8, addend: 0x0, symName: __ZNSt3__112basic_stringIcNS_11char_traitsIcEENS_9allocatorIcEEEC1B8ue170006EOS5_, symObjAddr: 0x1ED1C, symBinAddr: 0x100021D08, symSize: 0x34 }
  - { offsetInCU: 0x21EAF, offset: 0x21EAF, size: 0x8, addend: 0x0, symName: __ZNSt3__112basic_stringIcNS_11char_traitsIcEENS_9allocatorIcEEEC2B8ue170006EOS5_, symObjAddr: 0x1ED50, symBinAddr: 0x100021D3C, symSize: 0x40 }
  - { offsetInCU: 0x21EEE, offset: 0x21EEE, size: 0x8, addend: 0x0, symName: __ZNSt3__119__to_address_helperINS_16reverse_iteratorIPNS_12basic_stringIcNS_11char_traitsIcEENS_9allocatorIcEEEEEEvE6__callB8ue170006ERKS9_, symObjAddr: 0x1ED90, symBinAddr: 0x100021D7C, symSize: 0x44 }
  - { offsetInCU: 0x21F11, offset: 0x21F11, size: 0x8, addend: 0x0, symName: __ZNKSt3__116reverse_iteratorIPNS_12basic_stringIcNS_11char_traitsIcEENS_9allocatorIcEEEEEptB8ue170006Ev, symObjAddr: 0x1EDD4, symBinAddr: 0x100021DC0, symSize: 0x6C }
  - { offsetInCU: 0x21F37, offset: 0x21F37, size: 0x8, addend: 0x0, symName: __ZNSt3__128__exception_guard_exceptionsINS_29_AllocatorDestroyRangeReverseINS_9allocatorINS_12basic_stringIcNS_11char_traitsIcEENS2_IcEEEEEENS_16reverse_iteratorIPS7_EEEEED2B8ue170006Ev, symObjAddr: 0x1F14C, symBinAddr: 0x100022138, symSize: 0xBC }
  - { offsetInCU: 0x21F61, offset: 0x21F61, size: 0x8, addend: 0x0, symName: __ZNKSt3__129_AllocatorDestroyRangeReverseINS_9allocatorINS_12basic_stringIcNS_11char_traitsIcEENS1_IcEEEEEENS_16reverse_iteratorIPS6_EEEclB8ue170006Ev, symObjAddr: 0x1F208, symBinAddr: 0x1000221F4, symSize: 0x3A8 }
  - { offsetInCU: 0x21F88, offset: 0x21F88, size: 0x8, addend: 0x0, symName: __ZNSt3__116reverse_iteratorINS0_IPNS_12basic_stringIcNS_11char_traitsIcEENS_9allocatorIcEEEEEEEC1B8ue170006ES8_, symObjAddr: 0x1F620, symBinAddr: 0x10002260C, symSize: 0x248 }
  - { offsetInCU: 0x21FC5, offset: 0x21FC5, size: 0x8, addend: 0x0, symName: __ZNSt3__116allocator_traitsINS_9allocatorINS_12basic_stringIcNS_11char_traitsIcEENS1_IcEEEEEEE7destroyB8ue170006IS6_vvEEvRS7_PT_, symObjAddr: 0x1FB34, symBinAddr: 0x100022B20, symSize: 0x28 }
  - { offsetInCU: 0x21FFF, offset: 0x21FFF, size: 0x8, addend: 0x0, symName: __ZNSt3__116reverse_iteratorINS0_IPNS_12basic_stringIcNS_11char_traitsIcEENS_9allocatorIcEEEEEEEppB8ue170006Ev, symObjAddr: 0x1FB80, symBinAddr: 0x100022B6C, symSize: 0x30 }
  - { offsetInCU: 0x22025, offset: 0x22025, size: 0x8, addend: 0x0, symName: __ZNKSt3__116reverse_iteratorINS0_IPNS_12basic_stringIcNS_11char_traitsIcEENS_9allocatorIcEEEEEEE4baseB8ue170006Ev, symObjAddr: 0x1FBB0, symBinAddr: 0x100022B9C, symSize: 0x20C }
  - { offsetInCU: 0x22052, offset: 0x22052, size: 0x8, addend: 0x0, symName: __ZNSt3__119__to_address_helperINS_16reverse_iteratorINS1_IPNS_12basic_stringIcNS_11char_traitsIcEENS_9allocatorIcEEEEEEEEvE6__callB8ue170006ERKSA_, symObjAddr: 0x1FDBC, symBinAddr: 0x100022DA8, symSize: 0x44 }
  - { offsetInCU: 0x22075, offset: 0x22075, size: 0x8, addend: 0x0, symName: __ZNKSt3__116reverse_iteratorINS0_IPNS_12basic_stringIcNS_11char_traitsIcEENS_9allocatorIcEEEEEEEptB8ue170006Ev, symObjAddr: 0x1FE00, symBinAddr: 0x100022DEC, symSize: 0x2A0 }
  - { offsetInCU: 0x2209C, offset: 0x2209C, size: 0x8, addend: 0x0, symName: __ZNSt3__116reverse_iteratorIPNS_12basic_stringIcNS_11char_traitsIcEENS_9allocatorIcEEEEEpLB8ue170006El, symObjAddr: 0x20398, symBinAddr: 0x100023384, symSize: 0x84 }
  - { offsetInCU: 0x220D0, offset: 0x220D0, size: 0x8, addend: 0x0, symName: __ZNSt3__116reverse_iteratorIPNS_12basic_stringIcNS_11char_traitsIcEENS_9allocatorIcEEEEEmmB8ue170006Ev, symObjAddr: 0x2041C, symBinAddr: 0x100023408, symSize: 0x6C }
  - { offsetInCU: 0x220F6, offset: 0x220F6, size: 0x8, addend: 0x0, symName: __ZNSt3__116reverse_iteratorINS0_IPNS_12basic_stringIcNS_11char_traitsIcEENS_9allocatorIcEEEEEEEC2B8ue170006ES8_, symObjAddr: 0x20488, symBinAddr: 0x100023474, symSize: 0x22C }
  - { offsetInCU: 0x22133, offset: 0x22133, size: 0x8, addend: 0x0, symName: __ZNSt3__116reverse_iteratorIPNS_12basic_stringIcNS_11char_traitsIcEENS_9allocatorIcEEEEEC2B8ue170006ES7_, symObjAddr: 0x206B4, symBinAddr: 0x1000236A0, symSize: 0xB8 }
  - { offsetInCU: 0x2216B, offset: 0x2216B, size: 0x8, addend: 0x0, symName: __ZNSt3__114__split_bufferINS_12basic_stringIcNS_11char_traitsIcEENS_9allocatorIcEEEERNS4_IS6_EEED2Ev, symObjAddr: 0x2076C, symBinAddr: 0x100023758, symSize: 0x104 }
  - { offsetInCU: 0x22197, offset: 0x22197, size: 0x8, addend: 0x0, symName: __ZNSt3__114__split_bufferINS_12basic_stringIcNS_11char_traitsIcEENS_9allocatorIcEEEERNS4_IS6_EEE5clearB8ue170006Ev, symObjAddr: 0x20870, symBinAddr: 0x10002385C, symSize: 0x68 }
  - { offsetInCU: 0x221BD, offset: 0x221BD, size: 0x8, addend: 0x0, symName: __ZNSt3__116allocator_traitsINS_9allocatorINS_12basic_stringIcNS_11char_traitsIcEENS1_IcEEEEEEE10deallocateB8ue170006ERS7_PS6_m, symObjAddr: 0x208D8, symBinAddr: 0x1000238C4, symSize: 0x34 }
  - { offsetInCU: 0x221FF, offset: 0x221FF, size: 0x8, addend: 0x0, symName: __ZNKSt3__114__split_bufferINS_12basic_stringIcNS_11char_traitsIcEENS_9allocatorIcEEEERNS4_IS6_EEE8capacityB8ue170006Ev, symObjAddr: 0x2090C, symBinAddr: 0x1000238F8, symSize: 0xBC }
  - { offsetInCU: 0x22225, offset: 0x22225, size: 0x8, addend: 0x0, symName: __ZNSt3__114__split_bufferINS_12basic_stringIcNS_11char_traitsIcEENS_9allocatorIcEEEERNS4_IS6_EEE17__destruct_at_endB8ue170006EPS6_, symObjAddr: 0x209C8, symBinAddr: 0x1000239B4, symSize: 0x2C }
  - { offsetInCU: 0x22259, offset: 0x22259, size: 0x8, addend: 0x0, symName: __ZNSt3__114__split_bufferINS_12basic_stringIcNS_11char_traitsIcEENS_9allocatorIcEEEERNS4_IS6_EEE17__destruct_at_endB8ue170006EPS6_NS_17integral_constantIbLb0EEE, symObjAddr: 0x209F4, symBinAddr: 0x1000239E0, symSize: 0x10C }
  - { offsetInCU: 0x2229A, offset: 0x2229A, size: 0x8, addend: 0x0, symName: __ZNSt3__19allocatorINS_12basic_stringIcNS_11char_traitsIcEENS0_IcEEEEE10deallocateB8ue170006EPS5_m, symObjAddr: 0x20B00, symBinAddr: 0x100023AEC, symSize: 0x50 }
  - { offsetInCU: 0x222DC, offset: 0x222DC, size: 0x8, addend: 0x0, symName: __ZNKSt3__114__split_bufferINS_12basic_stringIcNS_11char_traitsIcEENS_9allocatorIcEEEERNS4_IS6_EEE9__end_capB8ue170006Ev, symObjAddr: 0x20B50, symBinAddr: 0x100023B3C, symSize: 0x28 }
  - { offsetInCU: 0x22302, offset: 0x22302, size: 0x8, addend: 0x0, symName: __ZNKSt3__117__compressed_pairIPNS_12basic_stringIcNS_11char_traitsIcEENS_9allocatorIcEEEERNS4_IS6_EEE5firstB8ue170006Ev, symObjAddr: 0x20B78, symBinAddr: 0x100023B64, symSize: 0x24 }
  - { offsetInCU: 0x22328, offset: 0x22328, size: 0x8, addend: 0x0, symName: __ZNSt3__111char_traitsIcE6assignB8ue170006ERcRKc, symObjAddr: 0x20B9C, symBinAddr: 0x100023B88, symSize: 0xF4 }
  - { offsetInCU: 0x22359, offset: 0x22359, size: 0x8, addend: 0x0, symName: __ZNSt3__112basic_stringIcNS_11char_traitsIcEENS_9allocatorIcEEE15__set_long_sizeB8ue170006Em, symObjAddr: 0x20C90, symBinAddr: 0x100023C7C, symSize: 0x80 }
  - { offsetInCU: 0x2238E, offset: 0x2238E, size: 0x8, addend: 0x0, symName: __ZNSt3__112basic_stringIcNS_11char_traitsIcEENS_9allocatorIcEEE16__set_short_sizeB8ue170006Em, symObjAddr: 0x20D10, symBinAddr: 0x100023CFC, symSize: 0x130 }
  - { offsetInCU: 0x223C3, offset: 0x223C3, size: 0x8, addend: 0x0, symName: __ZNKSt3__16__lessIvvEclB8ue170006INS_12basic_stringIcNS_11char_traitsIcEENS_9allocatorIcEEEES8_EEbRKT_RKT0_, symObjAddr: 0x22EA8, symBinAddr: 0x100025E94, symSize: 0x2AC }
  - { offsetInCU: 0x2241A, offset: 0x2241A, size: 0x8, addend: 0x0, symName: __ZNSt3__18_IterOpsINS_17_ClassicAlgPolicyEE9iter_swapB8ue170006IRPNS_12basic_stringIcNS_11char_traitsIcEENS_9allocatorIcEEEESB_EEvOT_OT0_, symObjAddr: 0x23154, symBinAddr: 0x100026140, symSize: 0xB0 }
  - { offsetInCU: 0x22463, offset: 0x22463, size: 0x8, addend: 0x0, symName: __ZNSt3__18_IterOpsINS_17_ClassicAlgPolicyEE9iter_swapB8ue170006IRPNS_12basic_stringIcNS_11char_traitsIcEENS_9allocatorIcEEEESA_EEvOT_OT0_, symObjAddr: 0x24684, symBinAddr: 0x100027670, symSize: 0xB0 }
  - { offsetInCU: 0x224A6, offset: 0x224A6, size: 0x8, addend: 0x0, symName: __ZNSt3__112basic_stringIcNS_11char_traitsIcEENS_9allocatorIcEEE4swapB8ue170006ERS5_, symObjAddr: 0x27B80, symBinAddr: 0x10002AB6C, symSize: 0x64 }
  - { offsetInCU: 0x224DD, offset: 0x224DD, size: 0x8, addend: 0x0, symName: __ZNSt3__112basic_stringIcNS_11char_traitsIcEENS_9allocatorIcEEE7__allocB8ue170006Ev, symObjAddr: 0x27E44, symBinAddr: 0x10002AE30, symSize: 0x24 }
  - { offsetInCU: 0x22503, offset: 0x22503, size: 0x8, addend: 0x0, symName: __ZNSt3__117__compressed_pairINS_12basic_stringIcNS_11char_traitsIcEENS_9allocatorIcEEE5__repES5_E6secondB8ue170006Ev, symObjAddr: 0x27E7C, symBinAddr: 0x10002AE68, symSize: 0x24 }
  - { offsetInCU: 0x22529, offset: 0x22529, size: 0x8, addend: 0x0, symName: __ZNSt3__122__compressed_pair_elemINS_9allocatorIcEELi1ELb1EE5__getB8ue170006Ev, symObjAddr: 0x27EA0, symBinAddr: 0x10002AE8C, symSize: 0x14 }
  - { offsetInCU: 0x2254F, offset: 0x2254F, size: 0x8, addend: 0x0, symName: __ZNSt3__18_IterOpsINS_17_ClassicAlgPolicyEE11__iter_moveB8ue170006IRPNS_12basic_stringIcNS_11char_traitsIcEENS_9allocatorIcEEEEEENS_9enable_ifIXsr12is_referenceIDTdeclsr3stdE7declvalIRT_EEEEE5valueEDTclsr3stdE4movedeclsr3stdE7declvalISE_EEEEE4typeEOSD_, symObjAddr: 0x28B9C, symBinAddr: 0x10002BB88, symSize: 0x6C }
  - { offsetInCU: 0x2257B, offset: 0x2257B, size: 0x8, addend: 0x0, symName: __ZNSt3__112basic_stringIcNS_11char_traitsIcEENS_9allocatorIcEEEaSB8ue170006EOS5_, symObjAddr: 0x28C08, symBinAddr: 0x10002BBF4, symSize: 0x34 }
  - { offsetInCU: 0x225B0, offset: 0x225B0, size: 0x8, addend: 0x0, symName: __ZNSt3__18_IterOpsINS_17_ClassicAlgPolicyEE25__validate_iter_referenceB8ue170006IRPNS_12basic_stringIcNS_11char_traitsIcEENS_9allocatorIcEEEEEEvv, symObjAddr: 0x28C3C, symBinAddr: 0x10002BC28, symSize: 0x4 }
  - { offsetInCU: 0x225CE, offset: 0x225CE, size: 0x8, addend: 0x0, symName: __ZNSt3__112basic_stringIcNS_11char_traitsIcEENS_9allocatorIcEEE13__move_assignB8ue170006ERS5_NS_17integral_constantIbLb1EEE, symObjAddr: 0x28C40, symBinAddr: 0x10002BC2C, symSize: 0x2D0 }
  - { offsetInCU: 0x22613, offset: 0x22613, size: 0x8, addend: 0x0, symName: __ZNSt3__116allocator_traitsINS_9allocatorIcEEE10deallocateB8ue170006ERS2_Pcm, symObjAddr: 0x28F10, symBinAddr: 0x10002BEFC, symSize: 0x34 }
  - { offsetInCU: 0x22655, offset: 0x22655, size: 0x8, addend: 0x0, symName: __ZNKSt3__112basic_stringIcNS_11char_traitsIcEENS_9allocatorIcEEE14__get_long_capB8ue170006Ev, symObjAddr: 0x28F44, symBinAddr: 0x10002BF30, symSize: 0x78 }
  - { offsetInCU: 0x2267B, offset: 0x2267B, size: 0x8, addend: 0x0, symName: __ZNSt3__112basic_stringIcNS_11char_traitsIcEENS_9allocatorIcEEE19__move_assign_allocB8ue170006ERS5_, symObjAddr: 0x28FBC, symBinAddr: 0x10002BFA8, symSize: 0x2C }
  - { offsetInCU: 0x226B0, offset: 0x226B0, size: 0x8, addend: 0x0, symName: __ZNSt3__19allocatorIcE10deallocateB8ue170006EPcm, symObjAddr: 0x28FE8, symBinAddr: 0x10002BFD4, symSize: 0x4C }
  - { offsetInCU: 0x226F2, offset: 0x226F2, size: 0x8, addend: 0x0, symName: __ZNSt3__112basic_stringIcNS_11char_traitsIcEENS_9allocatorIcEEE19__move_assign_allocB8ue170006ERS5_NS_17integral_constantIbLb1EEE, symObjAddr: 0x29034, symBinAddr: 0x10002C020, symSize: 0x38 }
  - { offsetInCU: 0x22732, offset: 0x22732, size: 0x8, addend: 0x0, symName: __ZNSt3__18_IterOpsINS_17_ClassicAlgPolicyEE4nextB8ue170006IPNS_12basic_stringIcNS_11char_traitsIcEENS_9allocatorIcEEEEEET_SB_SB_, symObjAddr: 0x2906C, symBinAddr: 0x10002C058, symSize: 0x18 }
  - { offsetInCU: 0x22769, offset: 0x22769, size: 0x8, addend: 0x0, symName: __ZNSt3__18_IterOpsINS_17_ClassicAlgPolicyEE9iter_swapB8ue170006IPNS_12basic_stringIcNS_11char_traitsIcEENS_9allocatorIcEEEESA_EEvOT_OT0_, symObjAddr: 0x2C7DC, symBinAddr: 0x10002F7C8, symSize: 0xB0 }
  - { offsetInCU: 0x227CF, offset: 0x227CF, size: 0x8, addend: 0x0, symName: __ZNSt3__14pairIPNS_12basic_stringIcNS_11char_traitsIcEENS_9allocatorIcEEEEbEC1B8ue170006IRS7_RbLPv0EEEOT_OT0_, symObjAddr: 0x2C8A8, symBinAddr: 0x10002F894, symSize: 0x3C }
  - { offsetInCU: 0x2282D, offset: 0x2282D, size: 0x8, addend: 0x0, symName: __ZNSt3__14pairIPNS_12basic_stringIcNS_11char_traitsIcEENS_9allocatorIcEEEEbEC2B8ue170006IRS7_RbLPv0EEEOT_OT0_, symObjAddr: 0x2C8E4, symBinAddr: 0x10002F8D0, symSize: 0x188 }
  - { offsetInCU: 0x2288B, offset: 0x2288B, size: 0x8, addend: 0x0, symName: __ZNSt3__118__unwrap_iter_implINS_11__wrap_iterIPNS_12basic_stringIcNS_11char_traitsIcEENS_9allocatorIcEEEEEELb1EE8__unwrapB8ue170006ES9_, symObjAddr: 0x2CA6C, symBinAddr: 0x10002FA58, symSize: 0x1F0 }
  - { offsetInCU: 0x228BE, offset: 0x228BE, size: 0x8, addend: 0x0, symName: __ZNSt3__119__to_address_helperINS_11__wrap_iterIPNS_12basic_stringIcNS_11char_traitsIcEENS_9allocatorIcEEEEEEvE6__callB8ue170006ERKS9_, symObjAddr: 0x2CC80, symBinAddr: 0x10002FC6C, symSize: 0x200 }
  - { offsetInCU: 0x228E2, offset: 0x228E2, size: 0x8, addend: 0x0, symName: __ZNSt3__114pointer_traitsINS_11__wrap_iterIPNS_12basic_stringIcNS_11char_traitsIcEENS_9allocatorIcEEEEEEE10to_addressB8ue170006ES9_, symObjAddr: 0x2CE80, symBinAddr: 0x10002FE6C, symSize: 0x1F4 }
  - { offsetInCU: 0x22909, offset: 0x22909, size: 0x8, addend: 0x0, symName: __ZNKSt3__111__wrap_iterIPNS_12basic_stringIcNS_11char_traitsIcEENS_9allocatorIcEEEEE4baseB8ue170006Ev, symObjAddr: 0x2D074, symBinAddr: 0x100030060, symSize: 0x60 }
  - { offsetInCU: 0x2292F, offset: 0x2292F, size: 0x8, addend: 0x0, symName: __ZNSt3__16vectorINS_12basic_stringIcNS_11char_traitsIcEENS_9allocatorIcEEEENS4_IS6_EEE11__make_iterB8ue170006EPS6_, symObjAddr: 0x2D0D4, symBinAddr: 0x1000300C0, symSize: 0x1FC }
  - { offsetInCU: 0x22966, offset: 0x22966, size: 0x8, addend: 0x0, symName: __ZNSt3__111__wrap_iterIPNS_12basic_stringIcNS_11char_traitsIcEENS_9allocatorIcEEEEEC1B8ue170006ES7_, symObjAddr: 0x2D2D0, symBinAddr: 0x1000302BC, symSize: 0x34 }
  - { offsetInCU: 0x2299E, offset: 0x2299E, size: 0x8, addend: 0x0, symName: __ZNSt3__111__wrap_iterIPNS_12basic_stringIcNS_11char_traitsIcEENS_9allocatorIcEEEEEC2B8ue170006ES7_, symObjAddr: 0x2D304, symBinAddr: 0x1000302F0, symSize: 0x70 }
  - { offsetInCU: 0x229D6, offset: 0x229D6, size: 0x8, addend: 0x0, symName: __ZNSt3__16vectorINS_12basic_stringIcNS_11char_traitsIcEENS_9allocatorIcEEEENS4_IS6_EEED2B8ue170006Ev, symObjAddr: 0x2D374, symBinAddr: 0x100030360, symSize: 0x1F8 }
  - { offsetInCU: 0x22A01, offset: 0x22A01, size: 0x8, addend: 0x0, symName: __ZNSt3__16vectorINS_12basic_stringIcNS_11char_traitsIcEENS_9allocatorIcEEEENS4_IS6_EEE16__destroy_vectorC1B8ue170006ERS8_, symObjAddr: 0x2D56C, symBinAddr: 0x100030558, symSize: 0x34 }
  - { offsetInCU: 0x22A3A, offset: 0x22A3A, size: 0x8, addend: 0x0, symName: __ZNSt3__16vectorINS_12basic_stringIcNS_11char_traitsIcEENS_9allocatorIcEEEENS4_IS6_EEE16__destroy_vectorclB8ue170006Ev, symObjAddr: 0x2D5A0, symBinAddr: 0x10003058C, symSize: 0x228 }
  - { offsetInCU: 0x22A60, offset: 0x22A60, size: 0x8, addend: 0x0, symName: __ZNSt3__16vectorINS_12basic_stringIcNS_11char_traitsIcEENS_9allocatorIcEEEENS4_IS6_EEE16__destroy_vectorC2B8ue170006ERS8_, symObjAddr: 0x2D7C8, symBinAddr: 0x1000307B4, symSize: 0x70 }
  - { offsetInCU: 0x22A99, offset: 0x22A99, size: 0x8, addend: 0x0, symName: __ZNSt3__16vectorINS_12basic_stringIcNS_11char_traitsIcEENS_9allocatorIcEEEENS4_IS6_EEE7__clearB8ue170006Ev, symObjAddr: 0x2D838, symBinAddr: 0x100030824, symSize: 0x64 }
  - { offsetInCU: 0x22ABF, offset: 0x22ABF, size: 0x8, addend: 0x0, symName: __ZNSt3__16vectorINS_12basic_stringIcNS_11char_traitsIcEENS_9allocatorIcEEEENS4_IS6_EEE22__base_destruct_at_endB8ue170006EPS6_, symObjAddr: 0x2D89C, symBinAddr: 0x100030888, symSize: 0x114 }
  - { offsetInCU: 0x22B03, offset: 0x22B03, size: 0x8, addend: 0x0, symName: __ZNSt3__18multisetINS_12basic_stringIcNS_11char_traitsIcEENS_9allocatorIcEEEENS_4lessIS6_EENS4_IS6_EEED2B8ue170006Ev, symObjAddr: 0x2D9B0, symBinAddr: 0x10003099C, symSize: 0x2C }
  - { offsetInCU: 0x22B2D, offset: 0x22B2D, size: 0x8, addend: 0x0, symName: __ZNSt3__16__treeINS_12basic_stringIcNS_11char_traitsIcEENS_9allocatorIcEEEENS_4lessIS6_EENS4_IS6_EEED1Ev, symObjAddr: 0x2D9DC, symBinAddr: 0x1000309C8, symSize: 0x2C }
  - { offsetInCU: 0x22B59, offset: 0x22B59, size: 0x8, addend: 0x0, symName: __ZNSt3__16__treeINS_12basic_stringIcNS_11char_traitsIcEENS_9allocatorIcEEEENS_4lessIS6_EENS4_IS6_EEED2Ev, symObjAddr: 0x2DA08, symBinAddr: 0x1000309F4, symSize: 0x38 }
  - { offsetInCU: 0x22B85, offset: 0x22B85, size: 0x8, addend: 0x0, symName: __ZNSt3__16__treeINS_12basic_stringIcNS_11char_traitsIcEENS_9allocatorIcEEEENS_4lessIS6_EENS4_IS6_EEE7destroyEPNS_11__tree_nodeIS6_PvEE, symObjAddr: 0x2DA40, symBinAddr: 0x100030A2C, symSize: 0x12C }
  - { offsetInCU: 0x22BD1, offset: 0x22BD1, size: 0x8, addend: 0x0, symName: __ZNK5CDateeqERKS_, symObjAddr: 0x2DDA0, symBinAddr: 0x100030D8C, symSize: 0x2F8 }
  - { offsetInCU: 0x22C06, offset: 0x22C06, size: 0x8, addend: 0x0, symName: __ZNKSt3__18multisetINS_12basic_stringIcNS_11char_traitsIcEENS_9allocatorIcEEEENS_4lessIS6_EENS4_IS6_EEE4sizeB8ue170006Ev, symObjAddr: 0x2E88C, symBinAddr: 0x100031878, symSize: 0x6C }
  - { offsetInCU: 0x22C2C, offset: 0x22C2C, size: 0x8, addend: 0x0, symName: __ZNKSt3__18multisetINS_12basic_stringIcNS_11char_traitsIcEENS_9allocatorIcEEEENS_4lessIS6_EENS4_IS6_EEE5beginB8ue170006Ev, symObjAddr: 0x2ED04, symBinAddr: 0x100031CF0, symSize: 0x234 }
  - { offsetInCU: 0x22C53, offset: 0x22C53, size: 0x8, addend: 0x0, symName: __ZNKSt3__18multisetINS_12basic_stringIcNS_11char_traitsIcEENS_9allocatorIcEEEENS_4lessIS6_EENS4_IS6_EEE3endB8ue170006Ev, symObjAddr: 0x2EF38, symBinAddr: 0x100031F24, symSize: 0x234 }
  - { offsetInCU: 0x22C7A, offset: 0x22C7A, size: 0x8, addend: 0x0, symName: __ZNKSt3__16__treeINS_12basic_stringIcNS_11char_traitsIcEENS_9allocatorIcEEEENS_4lessIS6_EENS4_IS6_EEE4sizeB8ue170006Ev, symObjAddr: 0x2F16C, symBinAddr: 0x100032158, symSize: 0x28 }
  - { offsetInCU: 0x22CA0, offset: 0x22CA0, size: 0x8, addend: 0x0, symName: __ZNKSt3__117__compressed_pairImNS_4lessINS_12basic_stringIcNS_11char_traitsIcEENS_9allocatorIcEEEEEEE5firstB8ue170006Ev, symObjAddr: 0x2F194, symBinAddr: 0x100032180, symSize: 0x24 }
  - { offsetInCU: 0x22CC6, offset: 0x22CC6, size: 0x8, addend: 0x0, symName: __ZNKSt3__122__compressed_pair_elemImLi0ELb0EE5__getB8ue170006Ev, symObjAddr: 0x2F1B8, symBinAddr: 0x1000321A4, symSize: 0x14 }
  - { offsetInCU: 0x22CF7, offset: 0x22CF7, size: 0x8, addend: 0x0, symName: __ZNKSt3__110__equal_toclB8ue170006INS_12basic_stringIcNS_11char_traitsIcEENS_9allocatorIcEEEES7_EEbRKT_RKT0_, symObjAddr: 0x2FE00, symBinAddr: 0x100032DEC, symSize: 0x34 }
  - { offsetInCU: 0x22D4B, offset: 0x22D4B, size: 0x8, addend: 0x0, symName: __ZNSt3__118__unwrap_iter_implINS_21__tree_const_iteratorINS_12basic_stringIcNS_11char_traitsIcEENS_9allocatorIcEEEEPNS_11__tree_nodeIS7_PvEElEELb0EE8__unwrapB8ue170006ESC_, symObjAddr: 0x2FE34, symBinAddr: 0x100032E20, symSize: 0x270 }
  - { offsetInCU: 0x22D72, offset: 0x22D72, size: 0x8, addend: 0x0, symName: __ZNKSt3__16__treeINS_12basic_stringIcNS_11char_traitsIcEENS_9allocatorIcEEEENS_4lessIS6_EENS4_IS6_EEE5beginB8ue170006Ev, symObjAddr: 0x300A4, symBinAddr: 0x100033090, symSize: 0x238 }
  - { offsetInCU: 0x22D99, offset: 0x22D99, size: 0x8, addend: 0x0, symName: __ZNKSt3__16__treeINS_12basic_stringIcNS_11char_traitsIcEENS_9allocatorIcEEEENS_4lessIS6_EENS4_IS6_EEE12__begin_nodeB8ue170006Ev, symObjAddr: 0x302DC, symBinAddr: 0x1000332C8, symSize: 0x14 }
  - { offsetInCU: 0x22DBF, offset: 0x22DBF, size: 0x8, addend: 0x0, symName: __ZNSt3__121__tree_const_iteratorINS_12basic_stringIcNS_11char_traitsIcEENS_9allocatorIcEEEEPNS_11__tree_nodeIS6_PvEElEC1B8ue170006EPNS_15__tree_end_nodeIPNS_16__tree_node_baseIS8_EEEE, symObjAddr: 0x302F0, symBinAddr: 0x1000332DC, symSize: 0x34 }
  - { offsetInCU: 0x22DF8, offset: 0x22DF8, size: 0x8, addend: 0x0, symName: __ZNSt3__121__tree_const_iteratorINS_12basic_stringIcNS_11char_traitsIcEENS_9allocatorIcEEEEPNS_11__tree_nodeIS6_PvEElEC2B8ue170006EPNS_15__tree_end_nodeIPNS_16__tree_node_baseIS8_EEEE, symObjAddr: 0x30324, symBinAddr: 0x100033310, symSize: 0x70 }
  - { offsetInCU: 0x22E31, offset: 0x22E31, size: 0x8, addend: 0x0, symName: __ZNKSt3__16__treeINS_12basic_stringIcNS_11char_traitsIcEENS_9allocatorIcEEEENS_4lessIS6_EENS4_IS6_EEE3endB8ue170006Ev, symObjAddr: 0x30394, symBinAddr: 0x100033380, symSize: 0x204 }
  - { offsetInCU: 0x22E58, offset: 0x22E58, size: 0x8, addend: 0x0, symName: __ZNKSt3__16vectorINS_12basic_stringIcNS_11char_traitsIcEENS_9allocatorIcEEEENS4_IS6_EEE5beginB8ue170006Ev, symObjAddr: 0x309A4, symBinAddr: 0x100033990, symSize: 0x268 }
  - { offsetInCU: 0x22E81, offset: 0x22E81, size: 0x8, addend: 0x0, symName: __ZNKSt3__16vectorINS_12basic_stringIcNS_11char_traitsIcEENS_9allocatorIcEEEENS4_IS6_EEE3endB8ue170006Ev, symObjAddr: 0x30C0C, symBinAddr: 0x100033BF8, symSize: 0x26C }
  - { offsetInCU: 0x22EAA, offset: 0x22EAA, size: 0x8, addend: 0x0, symName: __ZNSt3__118__unwrap_iter_implINS_11__wrap_iterIPKNS_12basic_stringIcNS_11char_traitsIcEENS_9allocatorIcEEEEEELb1EE8__unwrapB8ue170006ESA_, symObjAddr: 0x315E4, symBinAddr: 0x1000345D0, symSize: 0x1F0 }
  - { offsetInCU: 0x22EDD, offset: 0x22EDD, size: 0x8, addend: 0x0, symName: __ZNSt3__119__to_address_helperINS_11__wrap_iterIPKNS_12basic_stringIcNS_11char_traitsIcEENS_9allocatorIcEEEEEEvE6__callB8ue170006ERKSA_, symObjAddr: 0x317F8, symBinAddr: 0x1000347E4, symSize: 0x200 }
  - { offsetInCU: 0x22F01, offset: 0x22F01, size: 0x8, addend: 0x0, symName: __ZNSt3__114pointer_traitsINS_11__wrap_iterIPKNS_12basic_stringIcNS_11char_traitsIcEENS_9allocatorIcEEEEEEE10to_addressB8ue170006ESA_, symObjAddr: 0x319F8, symBinAddr: 0x1000349E4, symSize: 0x1F4 }
  - { offsetInCU: 0x22F28, offset: 0x22F28, size: 0x8, addend: 0x0, symName: __ZNKSt3__111__wrap_iterIPKNS_12basic_stringIcNS_11char_traitsIcEENS_9allocatorIcEEEEE4baseB8ue170006Ev, symObjAddr: 0x31C00, symBinAddr: 0x100034BEC, symSize: 0x60 }
  - { offsetInCU: 0x22F4E, offset: 0x22F4E, size: 0x8, addend: 0x0, symName: __ZNKSt3__16vectorINS_12basic_stringIcNS_11char_traitsIcEENS_9allocatorIcEEEENS4_IS6_EEE11__make_iterB8ue170006EPKS6_, symObjAddr: 0x31C60, symBinAddr: 0x100034C4C, symSize: 0x1FC }
  - { offsetInCU: 0x22F85, offset: 0x22F85, size: 0x8, addend: 0x0, symName: __ZNSt3__111__wrap_iterIPKNS_12basic_stringIcNS_11char_traitsIcEENS_9allocatorIcEEEEEC1B8ue170006ES8_, symObjAddr: 0x31E5C, symBinAddr: 0x100034E48, symSize: 0x34 }
  - { offsetInCU: 0x22FBD, offset: 0x22FBD, size: 0x8, addend: 0x0, symName: __ZNSt3__111__wrap_iterIPKNS_12basic_stringIcNS_11char_traitsIcEENS_9allocatorIcEEEEEC2B8ue170006ES8_, symObjAddr: 0x31E90, symBinAddr: 0x100034E7C, symSize: 0x70 }
  - { offsetInCU: 0x22FF5, offset: 0x22FF5, size: 0x8, addend: 0x0, symName: __ZN8CStudentD2Ev, symObjAddr: 0x31F00, symBinAddr: 0x100034EEC, symSize: 0x44 }
  - { offsetInCU: 0x23021, offset: 0x23021, size: 0x8, addend: 0x0, symName: __ZNSt3__13mapI8CStudentNS_15__list_iteratorIS1_PvEENS_4lessIS1_EENS_9allocatorINS_4pairIKS1_S4_EEEEE6insertB8ue170006EOSA_, symObjAddr: 0x31F44, symBinAddr: 0x100034F30, symSize: 0x2A8 }
  - { offsetInCU: 0x23058, offset: 0x23058, size: 0x8, addend: 0x0, symName: __ZNSt3__14listI8CStudentNS_9allocatorIS1_EEE3endB8ue170006Ev, symObjAddr: 0x321EC, symBinAddr: 0x1000351D8, symSize: 0x234 }
  - { offsetInCU: 0x23085, offset: 0x23085, size: 0x8, addend: 0x0, symName: __ZNSt3__14pairIK8CStudentNS_15__list_iteratorIS1_PvEEEC1B8ue170006IRS2_S5_LS4_0EEEOT_OT0_, symObjAddr: 0x32420, symBinAddr: 0x10003540C, symSize: 0x3C }
  - { offsetInCU: 0x230E3, offset: 0x230E3, size: 0x8, addend: 0x0, symName: __ZNSt3__14pairIK8CStudentNS_15__list_iteratorIS1_PvEEED1Ev, symObjAddr: 0x3245C, symBinAddr: 0x100035448, symSize: 0x2C }
  - { offsetInCU: 0x2310F, offset: 0x2310F, size: 0x8, addend: 0x0, symName: __ZNSt3__14listI8CStudentNS_9allocatorIS1_EEE9push_backERKS1_, symObjAddr: 0x324D0, symBinAddr: 0x1000354BC, symSize: 0x398 }
  - { offsetInCU: 0x2316B, offset: 0x2316B, size: 0x8, addend: 0x0, symName: __ZNKSt3__114__map_iteratorINS_15__tree_iteratorINS_12__value_typeI8CStudentNS_15__list_iteratorIS3_PvEEEEPNS_11__tree_nodeIS7_S5_EElEEEptB8ue170006Ev, symObjAddr: 0x32AF8, symBinAddr: 0x100035AE4, symSize: 0x2C }
  - { offsetInCU: 0x23191, offset: 0x23191, size: 0x8, addend: 0x0, symName: __ZNSt3__16__treeINS_12__value_typeI8CStudentNS_15__list_iteratorIS2_PvEEEENS_19__map_value_compareIS2_S6_NS_4lessIS2_EELb1EEENS_9allocatorIS6_EEE15__insert_uniqueB8ue170006EONS_4pairIKS2_S5_EE, symObjAddr: 0x32B24, symBinAddr: 0x100035B10, symSize: 0x238 }
  - { offsetInCU: 0x231C8, offset: 0x231C8, size: 0x8, addend: 0x0, symName: __ZNSt3__14pairINS_14__map_iteratorINS_15__tree_iteratorINS_12__value_typeI8CStudentNS_15__list_iteratorIS4_PvEEEEPNS_11__tree_nodeIS8_S6_EElEEEEbEC1B8ue170006ISC_bLS6_0EEEONS0_IT_T0_EE, symObjAddr: 0x32D5C, symBinAddr: 0x100035D48, symSize: 0x34 }
  - { offsetInCU: 0x23219, offset: 0x23219, size: 0x8, addend: 0x0, symName: __ZNSt3__16__treeINS_12__value_typeI8CStudentNS_15__list_iteratorIS2_PvEEEENS_19__map_value_compareIS2_S6_NS_4lessIS2_EELb1EEENS_9allocatorIS6_EEE25__emplace_unique_key_argsIS2_JNS_4pairIKS2_S5_EEEEENSF_INS_15__tree_iteratorIS6_PNS_11__tree_nodeIS6_S4_EElEEbEERKT_DpOT0_, symObjAddr: 0x32D90, symBinAddr: 0x100035D7C, symSize: 0x510 }
  - { offsetInCU: 0x232D5, offset: 0x232D5, size: 0x8, addend: 0x0, symName: __ZNSt3__122__tree_key_value_typesINS_12__value_typeI8CStudentNS_15__list_iteratorIS2_PvEEEEE9__get_keyB8ue170006INS_4pairIKS2_S5_EEEENS_9enable_ifIXsr17__is_same_uncvrefIT_SB_EE5valueERSA_E4typeERSD_, symObjAddr: 0x332A0, symBinAddr: 0x10003628C, symSize: 0x14 }
  - { offsetInCU: 0x23302, offset: 0x23302, size: 0x8, addend: 0x0, symName: __ZNSt3__16__treeINS_12__value_typeI8CStudentNS_15__list_iteratorIS2_PvEEEENS_19__map_value_compareIS2_S6_NS_4lessIS2_EELb1EEENS_9allocatorIS6_EEE12__find_equalIS2_EERPNS_16__tree_node_baseIS4_EERPNS_15__tree_end_nodeISH_EERKT_, symObjAddr: 0x332B4, symBinAddr: 0x1000362A0, symSize: 0x3F0 }
  - { offsetInCU: 0x2336F, offset: 0x2336F, size: 0x8, addend: 0x0, symName: __ZNSt3__16__treeINS_12__value_typeI8CStudentNS_15__list_iteratorIS2_PvEEEENS_19__map_value_compareIS2_S6_NS_4lessIS2_EELb1EEENS_9allocatorIS6_EEE16__construct_nodeIJNS_4pairIKS2_S5_EEEEENS_10unique_ptrINS_11__tree_nodeIS6_S4_EENS_22__tree_node_destructorINSB_ISK_EEEEEEDpOT_, symObjAddr: 0x336A4, symBinAddr: 0x100036690, symSize: 0x384 }
  - { offsetInCU: 0x233D4, offset: 0x233D4, size: 0x8, addend: 0x0, symName: __ZNSt3__16__treeINS_12__value_typeI8CStudentNS_15__list_iteratorIS2_PvEEEENS_19__map_value_compareIS2_S6_NS_4lessIS2_EELb1EEENS_9allocatorIS6_EEE16__insert_node_atEPNS_15__tree_end_nodeIPNS_16__tree_node_baseIS4_EEEERSH_SH_, symObjAddr: 0x33A28, symBinAddr: 0x100036A14, symSize: 0x370 }
  - { offsetInCU: 0x23429, offset: 0x23429, size: 0x8, addend: 0x0, symName: __ZNKSt3__110unique_ptrINS_11__tree_nodeINS_12__value_typeI8CStudentNS_15__list_iteratorIS3_PvEEEES5_EENS_22__tree_node_destructorINS_9allocatorIS8_EEEEE3getB8ue170006Ev, symObjAddr: 0x33D98, symBinAddr: 0x100036D84, symSize: 0x6C }
  - { offsetInCU: 0x2344F, offset: 0x2344F, size: 0x8, addend: 0x0, symName: __ZNSt3__110unique_ptrINS_11__tree_nodeINS_12__value_typeI8CStudentNS_15__list_iteratorIS3_PvEEEES5_EENS_22__tree_node_destructorINS_9allocatorIS8_EEEEE7releaseB8ue170006Ev, symObjAddr: 0x33E04, symBinAddr: 0x100036DF0, symSize: 0xB8 }
  - { offsetInCU: 0x23484, offset: 0x23484, size: 0x8, addend: 0x0, symName: __ZNSt3__110unique_ptrINS_11__tree_nodeINS_12__value_typeI8CStudentNS_15__list_iteratorIS3_PvEEEES5_EENS_22__tree_node_destructorINS_9allocatorIS8_EEEEED1B8ue170006Ev, symObjAddr: 0x33EBC, symBinAddr: 0x100036EA8, symSize: 0x2C }
  - { offsetInCU: 0x234AE, offset: 0x234AE, size: 0x8, addend: 0x0, symName: __ZNSt3__115__tree_iteratorINS_12__value_typeI8CStudentNS_15__list_iteratorIS2_PvEEEEPNS_11__tree_nodeIS6_S4_EElEC1B8ue170006ES9_, symObjAddr: 0x33EE8, symBinAddr: 0x100036ED4, symSize: 0x34 }
  - { offsetInCU: 0x234ED, offset: 0x234ED, size: 0x8, addend: 0x0, symName: __ZNSt3__14pairINS_15__tree_iteratorINS_12__value_typeI8CStudentNS_15__list_iteratorIS3_PvEEEEPNS_11__tree_nodeIS7_S5_EElEEbEC1B8ue170006ISB_RbLS5_0EEEOT_OT0_, symObjAddr: 0x33F1C, symBinAddr: 0x100036F08, symSize: 0x3C }
  - { offsetInCU: 0x2354B, offset: 0x2354B, size: 0x8, addend: 0x0, symName: __ZNKSt3__16__treeINS_12__value_typeI8CStudentNS_15__list_iteratorIS2_PvEEEENS_19__map_value_compareIS2_S6_NS_4lessIS2_EELb1EEENS_9allocatorIS6_EEE6__rootB8ue170006Ev, symObjAddr: 0x33F58, symBinAddr: 0x100036F44, symSize: 0x6C }
  - { offsetInCU: 0x23571, offset: 0x23571, size: 0x8, addend: 0x0, symName: __ZNKSt3__16__treeINS_12__value_typeI8CStudentNS_15__list_iteratorIS2_PvEEEENS_19__map_value_compareIS2_S6_NS_4lessIS2_EELb1EEENS_9allocatorIS6_EEE10__root_ptrB8ue170006Ev, symObjAddr: 0x33FC4, symBinAddr: 0x100036FB0, symSize: 0x24 }
  - { offsetInCU: 0x23597, offset: 0x23597, size: 0x8, addend: 0x0, symName: __ZNSt3__16__treeINS_12__value_typeI8CStudentNS_15__list_iteratorIS2_PvEEEENS_19__map_value_compareIS2_S6_NS_4lessIS2_EELb1EEENS_9allocatorIS6_EEE10value_compB8ue170006Ev, symObjAddr: 0x33FE8, symBinAddr: 0x100036FD4, symSize: 0x28 }
  - { offsetInCU: 0x235BD, offset: 0x235BD, size: 0x8, addend: 0x0, symName: __ZNKSt3__119__map_value_compareI8CStudentNS_12__value_typeIS1_NS_15__list_iteratorIS1_PvEEEENS_4lessIS1_EELb1EEclB8ue170006ERKS1_RKS6_, symObjAddr: 0x34010, symBinAddr: 0x100036FFC, symSize: 0x50 }
  - { offsetInCU: 0x23601, offset: 0x23601, size: 0x8, addend: 0x0, symName: __ZNKSt3__119__map_value_compareI8CStudentNS_12__value_typeIS1_NS_15__list_iteratorIS1_PvEEEENS_4lessIS1_EELb1EEclB8ue170006ERKS6_RKS1_, symObjAddr: 0x34060, symBinAddr: 0x10003704C, symSize: 0x48 }
  - { offsetInCU: 0x23645, offset: 0x23645, size: 0x8, addend: 0x0, symName: __ZNKSt3__16__treeINS_12__value_typeI8CStudentNS_15__list_iteratorIS2_PvEEEENS_19__map_value_compareIS2_S6_NS_4lessIS2_EELb1EEENS_9allocatorIS6_EEE10__end_nodeB8ue170006Ev, symObjAddr: 0x340A8, symBinAddr: 0x100037094, symSize: 0x2C }
  - { offsetInCU: 0x2366B, offset: 0x2366B, size: 0x8, addend: 0x0, symName: __ZNKSt3__117__compressed_pairINS_15__tree_end_nodeIPNS_16__tree_node_baseIPvEEEENS_9allocatorINS_11__tree_nodeINS_12__value_typeI8CStudentNS_15__list_iteratorISA_S3_EEEES3_EEEEE5firstB8ue170006Ev, symObjAddr: 0x340D4, symBinAddr: 0x1000370C0, symSize: 0x24 }
  - { offsetInCU: 0x23691, offset: 0x23691, size: 0x8, addend: 0x0, symName: __ZNSt3__117__compressed_pairImNS_19__map_value_compareI8CStudentNS_12__value_typeIS2_NS_15__list_iteratorIS2_PvEEEENS_4lessIS2_EELb1EEEE6secondB8ue170006Ev, symObjAddr: 0x340F8, symBinAddr: 0x1000370E4, symSize: 0x24 }
  - { offsetInCU: 0x236B7, offset: 0x236B7, size: 0x8, addend: 0x0, symName: __ZNSt3__122__compressed_pair_elemINS_19__map_value_compareI8CStudentNS_12__value_typeIS2_NS_15__list_iteratorIS2_PvEEEENS_4lessIS2_EELb1EEELi1ELb1EE5__getB8ue170006Ev, symObjAddr: 0x3411C, symBinAddr: 0x100037108, symSize: 0x14 }
  - { offsetInCU: 0x236DD, offset: 0x236DD, size: 0x8, addend: 0x0, symName: __ZNKSt3__14lessI8CStudentEclB8ue170006ERKS1_S4_, symObjAddr: 0x34130, symBinAddr: 0x10003711C, symSize: 0x2AC }
  - { offsetInCU: 0x23724, offset: 0x23724, size: 0x8, addend: 0x0, symName: __ZNKSt3__112__value_typeI8CStudentNS_15__list_iteratorIS1_PvEEE11__get_valueB8ue170006Ev, symObjAddr: 0x343DC, symBinAddr: 0x1000373C8, symSize: 0x24 }
  - { offsetInCU: 0x2374A, offset: 0x2374A, size: 0x8, addend: 0x0, symName: __ZNK8CStudentssERKS_, symObjAddr: 0x34400, symBinAddr: 0x1000373EC, symSize: 0xAB8 }
  - { offsetInCU: 0x23823, offset: 0x23823, size: 0x8, addend: 0x0, symName: __ZNK5CDatessERKS_, symObjAddr: 0x3512C, symBinAddr: 0x100038118, symSize: 0x9A8 }
  - { offsetInCU: 0x238BA, offset: 0x238BA, size: 0x8, addend: 0x0, symName: __ZNKSt3__111__wrap_iterIPKNS_12basic_stringIcNS_11char_traitsIcEENS_9allocatorIcEEEEEdeB8ue170006Ev, symObjAddr: 0x381E8, symBinAddr: 0x10003B1D4, symSize: 0x60 }
  - { offsetInCU: 0x238E0, offset: 0x238E0, size: 0x8, addend: 0x0, symName: __ZNSt3__111__wrap_iterIPKNS_12basic_stringIcNS_11char_traitsIcEENS_9allocatorIcEEEEEppB8ue170006Ev, symObjAddr: 0x38248, symBinAddr: 0x10003B234, symSize: 0x68 }
  - { offsetInCU: 0x23911, offset: 0x23911, size: 0x8, addend: 0x0, symName: __ZNKSt3__16__lessIvvEclB8ue170006IllEEbRKT_RKT0_, symObjAddr: 0x38498, symBinAddr: 0x10003B484, symSize: 0xBC }
  - { offsetInCU: 0x23965, offset: 0x23965, size: 0x8, addend: 0x0, symName: __ZNSt3__16__treeINS_12__value_typeI8CStudentNS_15__list_iteratorIS2_PvEEEENS_19__map_value_compareIS2_S6_NS_4lessIS2_EELb1EEENS_9allocatorIS6_EEE12__node_allocB8ue170006Ev, symObjAddr: 0x3858C, symBinAddr: 0x10003B578, symSize: 0x28 }
  - { offsetInCU: 0x2398B, offset: 0x2398B, size: 0x8, addend: 0x0, symName: __ZNSt3__116allocator_traitsINS_9allocatorINS_11__tree_nodeINS_12__value_typeI8CStudentNS_15__list_iteratorIS4_PvEEEES6_EEEEE8allocateB8ue170006ERSA_m, symObjAddr: 0x385B4, symBinAddr: 0x10003B5A0, symSize: 0x2C }
  - { offsetInCU: 0x239BE, offset: 0x239BE, size: 0x8, addend: 0x0, symName: __ZNSt3__122__tree_node_destructorINS_9allocatorINS_11__tree_nodeINS_12__value_typeI8CStudentNS_15__list_iteratorIS4_PvEEEES6_EEEEEC1B8ue170006ERSA_b, symObjAddr: 0x385E0, symBinAddr: 0x10003B5CC, symSize: 0x48 }
  - { offsetInCU: 0x23A0C, offset: 0x23A0C, size: 0x8, addend: 0x0, symName: __ZNSt3__110unique_ptrINS_11__tree_nodeINS_12__value_typeI8CStudentNS_15__list_iteratorIS3_PvEEEES5_EENS_22__tree_node_destructorINS_9allocatorIS8_EEEEEC1B8ue170006ILb1EvEEPS8_NS_16__dependent_typeINS_27__unique_ptr_deleter_sfinaeISC_EEXT_EE20__good_rval_ref_typeE, symObjAddr: 0x38628, symBinAddr: 0x10003B614, symSize: 0x3C }
  - { offsetInCU: 0x23A5D, offset: 0x23A5D, size: 0x8, addend: 0x0, symName: __ZNSt3__116allocator_traitsINS_9allocatorINS_11__tree_nodeINS_12__value_typeI8CStudentNS_15__list_iteratorIS4_PvEEEES6_EEEEE9constructB8ue170006INS_4pairIKS4_S7_EEJSF_EvvEEvRSA_PT_DpOT0_, symObjAddr: 0x38664, symBinAddr: 0x10003B650, symSize: 0x30 }
  - { offsetInCU: 0x23AB1, offset: 0x23AB1, size: 0x8, addend: 0x0, symName: __ZNSt3__122__tree_key_value_typesINS_12__value_typeI8CStudentNS_15__list_iteratorIS2_PvEEEEE9__get_ptrB8ue170006ERS6_, symObjAddr: 0x38694, symBinAddr: 0x10003B680, symSize: 0x24 }
  - { offsetInCU: 0x23AD5, offset: 0x23AD5, size: 0x8, addend: 0x0, symName: __ZNKSt3__110unique_ptrINS_11__tree_nodeINS_12__value_typeI8CStudentNS_15__list_iteratorIS3_PvEEEES5_EENS_22__tree_node_destructorINS_9allocatorIS8_EEEEEptB8ue170006Ev, symObjAddr: 0x386B8, symBinAddr: 0x10003B6A4, symSize: 0x6C }
  - { offsetInCU: 0x23AFB, offset: 0x23AFB, size: 0x8, addend: 0x0, symName: __ZNSt3__110unique_ptrINS_11__tree_nodeINS_12__value_typeI8CStudentNS_15__list_iteratorIS3_PvEEEES5_EENS_22__tree_node_destructorINS_9allocatorIS8_EEEEE11get_deleterB8ue170006Ev, symObjAddr: 0x38724, symBinAddr: 0x10003B710, symSize: 0x24 }
  - { offsetInCU: 0x23B21, offset: 0x23B21, size: 0x8, addend: 0x0, symName: __ZNSt3__117__compressed_pairINS_15__tree_end_nodeIPNS_16__tree_node_baseIPvEEEENS_9allocatorINS_11__tree_nodeINS_12__value_typeI8CStudentNS_15__list_iteratorISA_S3_EEEES3_EEEEE6secondB8ue170006Ev, symObjAddr: 0x38748, symBinAddr: 0x10003B734, symSize: 0x24 }
  - { offsetInCU: 0x23B47, offset: 0x23B47, size: 0x8, addend: 0x0, symName: __ZNSt3__122__compressed_pair_elemINS_9allocatorINS_11__tree_nodeINS_12__value_typeI8CStudentNS_15__list_iteratorIS4_PvEEEES6_EEEELi1ELb1EE5__getB8ue170006Ev, symObjAddr: 0x3876C, symBinAddr: 0x10003B758, symSize: 0x14 }
  - { offsetInCU: 0x23B6D, offset: 0x23B6D, size: 0x8, addend: 0x0, symName: __ZNSt3__19allocatorINS_11__tree_nodeINS_12__value_typeI8CStudentNS_15__list_iteratorIS3_PvEEEES5_EEE8allocateB8ue170006Em, symObjAddr: 0x38780, symBinAddr: 0x10003B76C, symSize: 0x5C }
  - { offsetInCU: 0x23BAC, offset: 0x23BAC, size: 0x8, addend: 0x0, symName: __ZNSt3__116allocator_traitsINS_9allocatorINS_11__tree_nodeINS_12__value_typeI8CStudentNS_15__list_iteratorIS4_PvEEEES6_EEEEE8max_sizeB8ue170006ISA_vvEEmRKSA_, symObjAddr: 0x387DC, symBinAddr: 0x10003B7C8, symSize: 0x28 }
  - { offsetInCU: 0x23BD7, offset: 0x23BD7, size: 0x8, addend: 0x0, symName: __ZNSt3__122__tree_node_destructorINS_9allocatorINS_11__tree_nodeINS_12__value_typeI8CStudentNS_15__list_iteratorIS4_PvEEEES6_EEEEEC2B8ue170006ERSA_b, symObjAddr: 0x38804, symBinAddr: 0x10003B7F0, symSize: 0xF0 }
  - { offsetInCU: 0x23C1F, offset: 0x23C1F, size: 0x8, addend: 0x0, symName: __ZNSt3__110unique_ptrINS_11__tree_nodeINS_12__value_typeI8CStudentNS_15__list_iteratorIS3_PvEEEES5_EENS_22__tree_node_destructorINS_9allocatorIS8_EEEEEC2B8ue170006ILb1EvEEPS8_NS_16__dependent_typeINS_27__unique_ptr_deleter_sfinaeISC_EEXT_EE20__good_rval_ref_typeE, symObjAddr: 0x388F4, symBinAddr: 0x10003B8E0, symSize: 0x21C }
  - { offsetInCU: 0x23C76, offset: 0x23C76, size: 0x8, addend: 0x0, symName: __ZNSt3__117__compressed_pairIPNS_11__tree_nodeINS_12__value_typeI8CStudentNS_15__list_iteratorIS3_PvEEEES5_EENS_22__tree_node_destructorINS_9allocatorIS8_EEEEEC1B8ue170006IRS9_SD_EEOT_OT0_, symObjAddr: 0x38B10, symBinAddr: 0x10003BAFC, symSize: 0x3C }
  - { offsetInCU: 0x23CCE, offset: 0x23CCE, size: 0x8, addend: 0x0, symName: __ZNSt3__117__compressed_pairIPNS_11__tree_nodeINS_12__value_typeI8CStudentNS_15__list_iteratorIS3_PvEEEES5_EENS_22__tree_node_destructorINS_9allocatorIS8_EEEEEC2B8ue170006IRS9_SD_EEOT_OT0_, symObjAddr: 0x38B4C, symBinAddr: 0x10003BB38, symSize: 0x48 }
  - { offsetInCU: 0x23D26, offset: 0x23D26, size: 0x8, addend: 0x0, symName: __ZNSt3__122__compressed_pair_elemIPNS_11__tree_nodeINS_12__value_typeI8CStudentNS_15__list_iteratorIS3_PvEEEES5_EELi0ELb0EEC2B8ue170006IRS9_vEEOT_, symObjAddr: 0x38B94, symBinAddr: 0x10003BB80, symSize: 0xB0 }
  - { offsetInCU: 0x23D68, offset: 0x23D68, size: 0x8, addend: 0x0, symName: __ZNSt3__122__compressed_pair_elemINS_22__tree_node_destructorINS_9allocatorINS_11__tree_nodeINS_12__value_typeI8CStudentNS_15__list_iteratorIS5_PvEEEES7_EEEEEELi1ELb0EEC2B8ue170006ISC_vEEOT_, symObjAddr: 0x38C44, symBinAddr: 0x10003BC30, symSize: 0x38 }
  - { offsetInCU: 0x23DAA, offset: 0x23DAA, size: 0x8, addend: 0x0, symName: __ZNSt3__14pairIK8CStudentNS_15__list_iteratorIS1_PvEEEC1B8ue170006EOS6_, symObjAddr: 0x38CB8, symBinAddr: 0x10003BCA4, symSize: 0x34 }
  - { offsetInCU: 0x23DDF, offset: 0x23DDF, size: 0x8, addend: 0x0, symName: __ZNSt3__14pairIK8CStudentNS_15__list_iteratorIS1_PvEEEC2B8ue170006EOS6_, symObjAddr: 0x38CEC, symBinAddr: 0x10003BCD8, symSize: 0x4C }
  - { offsetInCU: 0x23E14, offset: 0x23E14, size: 0x8, addend: 0x0, symName: __ZN8CStudentC1ERKS_, symObjAddr: 0x38D38, symBinAddr: 0x10003BD24, symSize: 0x34 }
  - { offsetInCU: 0x23E49, offset: 0x23E49, size: 0x8, addend: 0x0, symName: __ZN8CStudentC2ERKS_, symObjAddr: 0x38D6C, symBinAddr: 0x10003BD58, symSize: 0xC0 }
  - { offsetInCU: 0x23E7E, offset: 0x23E7E, size: 0x8, addend: 0x0, symName: __ZNSt3__18multisetINS_12basic_stringIcNS_11char_traitsIcEENS_9allocatorIcEEEENS_4lessIS6_EENS4_IS6_EEEC1B8ue170006ERKSA_, symObjAddr: 0x38E2C, symBinAddr: 0x10003BE18, symSize: 0x34 }
  - { offsetInCU: 0x23EB7, offset: 0x23EB7, size: 0x8, addend: 0x0, symName: __ZNSt3__16vectorINS_12basic_stringIcNS_11char_traitsIcEENS_9allocatorIcEEEENS4_IS6_EEEC1ERKS8_, symObjAddr: 0x38E60, symBinAddr: 0x10003BE4C, symSize: 0x34 }
  - { offsetInCU: 0x23EF2, offset: 0x23EF2, size: 0x8, addend: 0x0, symName: __ZNSt3__18multisetINS_12basic_stringIcNS_11char_traitsIcEENS_9allocatorIcEEEENS_4lessIS6_EENS4_IS6_EEEC2B8ue170006ERKSA_, symObjAddr: 0x38E94, symBinAddr: 0x10003BE80, symSize: 0x440 }
  - { offsetInCU: 0x23F2D, offset: 0x23F2D, size: 0x8, addend: 0x0, symName: __ZNKSt3__16__treeINS_12basic_stringIcNS_11char_traitsIcEENS_9allocatorIcEEEENS_4lessIS6_EENS4_IS6_EEE10value_compB8ue170006Ev, symObjAddr: 0x392D4, symBinAddr: 0x10003C2C0, symSize: 0x28 }
  - { offsetInCU: 0x23F53, offset: 0x23F53, size: 0x8, addend: 0x0, symName: __ZNSt3__116allocator_traitsINS_9allocatorINS_12basic_stringIcNS_11char_traitsIcEENS1_IcEEEEEEE37select_on_container_copy_constructionB8ue170006IS7_vvEES7_RKS7_, symObjAddr: 0x392FC, symBinAddr: 0x10003C2E8, symSize: 0x10 }
  - { offsetInCU: 0x23F82, offset: 0x23F82, size: 0x8, addend: 0x0, symName: __ZNKSt3__16__treeINS_12basic_stringIcNS_11char_traitsIcEENS_9allocatorIcEEEENS_4lessIS6_EENS4_IS6_EEE7__allocB8ue170006Ev, symObjAddr: 0x3930C, symBinAddr: 0x10003C2F8, symSize: 0x1C4 }
  - { offsetInCU: 0x23FA9, offset: 0x23FA9, size: 0x8, addend: 0x0, symName: __ZNSt3__16__treeINS_12basic_stringIcNS_11char_traitsIcEENS_9allocatorIcEEEENS_4lessIS6_EENS4_IS6_EEEC1ERKS8_RKS9_, symObjAddr: 0x394D0, symBinAddr: 0x10003C4BC, symSize: 0x3C }
  - { offsetInCU: 0x23FF3, offset: 0x23FF3, size: 0x8, addend: 0x0, symName: __ZNSt3__18multisetINS_12basic_stringIcNS_11char_traitsIcEENS_9allocatorIcEEEENS_4lessIS6_EENS4_IS6_EEE6insertB8ue170006INS_21__tree_const_iteratorIS6_PNS_11__tree_nodeIS6_PvEElEEEEvT_SI_, symObjAddr: 0x3950C, symBinAddr: 0x10003C4F8, symSize: 0x408 }
  - { offsetInCU: 0x2406A, offset: 0x2406A, size: 0x8, addend: 0x0, symName: __ZNKSt3__117__compressed_pairImNS_4lessINS_12basic_stringIcNS_11char_traitsIcEENS_9allocatorIcEEEEEEE6secondB8ue170006Ev, symObjAddr: 0x39914, symBinAddr: 0x10003C900, symSize: 0x24 }
  - { offsetInCU: 0x24090, offset: 0x24090, size: 0x8, addend: 0x0, symName: __ZNKSt3__122__compressed_pair_elemINS_4lessINS_12basic_stringIcNS_11char_traitsIcEENS_9allocatorIcEEEEEELi1ELb1EE5__getB8ue170006Ev, symObjAddr: 0x39938, symBinAddr: 0x10003C924, symSize: 0x14 }
  - { offsetInCU: 0x240B6, offset: 0x240B6, size: 0x8, addend: 0x0, symName: __ZNKSt3__16__treeINS_12basic_stringIcNS_11char_traitsIcEENS_9allocatorIcEEEENS_4lessIS6_EENS4_IS6_EEE12__node_allocB8ue170006Ev, symObjAddr: 0x3994C, symBinAddr: 0x10003C938, symSize: 0x28 }
  - { offsetInCU: 0x240DC, offset: 0x240DC, size: 0x8, addend: 0x0, symName: __ZNSt3__19allocatorINS_12basic_stringIcNS_11char_traitsIcEENS0_IcEEEEEC1B8ue170006INS_11__tree_nodeIS5_PvEEEERKNS0_IT_EE, symObjAddr: 0x39974, symBinAddr: 0x10003C960, symSize: 0x34 }
  - { offsetInCU: 0x2411A, offset: 0x2411A, size: 0x8, addend: 0x0, symName: __ZNKSt3__117__compressed_pairINS_15__tree_end_nodeIPNS_16__tree_node_baseIPvEEEENS_9allocatorINS_11__tree_nodeINS_12basic_stringIcNS_11char_traitsIcEENS7_IcEEEES3_EEEEE6secondB8ue170006Ev, symObjAddr: 0x399A8, symBinAddr: 0x10003C994, symSize: 0x24 }
  - { offsetInCU: 0x24140, offset: 0x24140, size: 0x8, addend: 0x0, symName: __ZNKSt3__122__compressed_pair_elemINS_9allocatorINS_11__tree_nodeINS_12basic_stringIcNS_11char_traitsIcEENS1_IcEEEEPvEEEELi1ELb1EE5__getB8ue170006Ev, symObjAddr: 0x399CC, symBinAddr: 0x10003C9B8, symSize: 0x14 }
  - { offsetInCU: 0x24166, offset: 0x24166, size: 0x8, addend: 0x0, symName: __ZNSt3__19allocatorINS_12basic_stringIcNS_11char_traitsIcEENS0_IcEEEEEC2B8ue170006INS_11__tree_nodeIS5_PvEEEERKNS0_IT_EE, symObjAddr: 0x399E0, symBinAddr: 0x10003C9CC, symSize: 0x30 }
  - { offsetInCU: 0x241A4, offset: 0x241A4, size: 0x8, addend: 0x0, symName: __ZNSt3__16__treeINS_12basic_stringIcNS_11char_traitsIcEENS_9allocatorIcEEEENS_4lessIS6_EENS4_IS6_EEEC2ERKS8_RKS9_, symObjAddr: 0x39A10, symBinAddr: 0x10003C9FC, symSize: 0x36C }
  - { offsetInCU: 0x241F1, offset: 0x241F1, size: 0x8, addend: 0x0, symName: __ZNSt3__19allocatorINS_11__tree_nodeINS_12basic_stringIcNS_11char_traitsIcEENS0_IcEEEEPvEEEC1B8ue170006IS6_EERKNS0_IT_EE, symObjAddr: 0x39D7C, symBinAddr: 0x10003CD68, symSize: 0x34 }
  - { offsetInCU: 0x24235, offset: 0x24235, size: 0x8, addend: 0x0, symName: __ZNSt3__117__compressed_pairINS_15__tree_end_nodeIPNS_16__tree_node_baseIPvEEEENS_9allocatorINS_11__tree_nodeINS_12basic_stringIcNS_11char_traitsIcEENS7_IcEEEES3_EEEEEC1B8ue170006INS_18__default_init_tagESF_EEOT_OT0_, symObjAddr: 0x39DB0, symBinAddr: 0x10003CD9C, symSize: 0x3C }
  - { offsetInCU: 0x2428D, offset: 0x2428D, size: 0x8, addend: 0x0, symName: __ZNSt3__19allocatorINS_11__tree_nodeINS_12basic_stringIcNS_11char_traitsIcEENS0_IcEEEEPvEEEC2B8ue170006IS6_EERKNS0_IT_EE, symObjAddr: 0x39DEC, symBinAddr: 0x10003CDD8, symSize: 0x30 }
  - { offsetInCU: 0x242CB, offset: 0x242CB, size: 0x8, addend: 0x0, symName: __ZNSt3__117__compressed_pairINS_15__tree_end_nodeIPNS_16__tree_node_baseIPvEEEENS_9allocatorINS_11__tree_nodeINS_12basic_stringIcNS_11char_traitsIcEENS7_IcEEEES3_EEEEEC2B8ue170006INS_18__default_init_tagESF_EEOT_OT0_, symObjAddr: 0x39E1C, symBinAddr: 0x10003CE08, symSize: 0x40 }
  - { offsetInCU: 0x24323, offset: 0x24323, size: 0x8, addend: 0x0, symName: __ZNSt3__122__compressed_pair_elemINS_15__tree_end_nodeIPNS_16__tree_node_baseIPvEEEELi0ELb0EEC2B8ue170006ENS_18__default_init_tagE, symObjAddr: 0x39E5C, symBinAddr: 0x10003CE48, symSize: 0x2C }
  - { offsetInCU: 0x24358, offset: 0x24358, size: 0x8, addend: 0x0, symName: __ZNSt3__122__compressed_pair_elemINS_9allocatorINS_11__tree_nodeINS_12basic_stringIcNS_11char_traitsIcEENS1_IcEEEEPvEEEELi1ELb1EEC2B8ue170006ISA_vEEOT_, symObjAddr: 0x39E88, symBinAddr: 0x10003CE74, symSize: 0x18 }
  - { offsetInCU: 0x2439A, offset: 0x2439A, size: 0x8, addend: 0x0, symName: __ZNKSt3__18multisetINS_12basic_stringIcNS_11char_traitsIcEENS_9allocatorIcEEEENS_4lessIS6_EENS4_IS6_EEE4cendB8ue170006Ev, symObjAddr: 0x39EA0, symBinAddr: 0x10003CE8C, symSize: 0x234 }
  - { offsetInCU: 0x243C1, offset: 0x243C1, size: 0x8, addend: 0x0, symName: __ZNSt3__16__treeINS_12basic_stringIcNS_11char_traitsIcEENS_9allocatorIcEEEENS_4lessIS6_EENS4_IS6_EEE14__insert_multiB8ue170006IRKS6_EENS_15__tree_iteratorIS6_PNS_11__tree_nodeIS6_PvEElEENS_21__tree_const_iteratorIS6_SI_lEEOT_, symObjAddr: 0x3A0D4, symBinAddr: 0x10003D0C0, symSize: 0x33C }
  - { offsetInCU: 0x24414, offset: 0x24414, size: 0x8, addend: 0x0, symName: __ZNSt3__16__treeINS_12basic_stringIcNS_11char_traitsIcEENS_9allocatorIcEEEENS_4lessIS6_EENS4_IS6_EEE20__emplace_hint_multiIJRKS6_EEENS_15__tree_iteratorIS6_PNS_11__tree_nodeIS6_PvEElEENS_21__tree_const_iteratorIS6_SI_lEEDpOT_, symObjAddr: 0x3A410, symBinAddr: 0x10003D3FC, symSize: 0x530 }
  - { offsetInCU: 0x244A2, offset: 0x244A2, size: 0x8, addend: 0x0, symName: __ZNSt3__16__treeINS_12basic_stringIcNS_11char_traitsIcEENS_9allocatorIcEEEENS_4lessIS6_EENS4_IS6_EEE11__find_leafENS_21__tree_const_iteratorIS6_PNS_11__tree_nodeIS6_PvEElEERPNS_15__tree_end_nodeIPNS_16__tree_node_baseISD_EEEERKS6_, symObjAddr: 0x3A940, symBinAddr: 0x10003D92C, symSize: 0x748 }
  - { offsetInCU: 0x24520, offset: 0x24520, size: 0x8, addend: 0x0, symName: __ZNSt3__16__treeINS_12basic_stringIcNS_11char_traitsIcEENS_9allocatorIcEEEENS_4lessIS6_EENS4_IS6_EEE3endB8ue170006Ev, symObjAddr: 0x3B088, symBinAddr: 0x10003E074, symSize: 0x204 }
  - { offsetInCU: 0x24547, offset: 0x24547, size: 0x8, addend: 0x0, symName: __ZNSt3__16__treeINS_12basic_stringIcNS_11char_traitsIcEENS_9allocatorIcEEEENS_4lessIS6_EENS4_IS6_EEE5beginB8ue170006Ev, symObjAddr: 0x3B28C, symBinAddr: 0x10003E278, symSize: 0x238 }
  - { offsetInCU: 0x2456E, offset: 0x2456E, size: 0x8, addend: 0x0, symName: __ZNSt3__121__tree_const_iteratorINS_12basic_stringIcNS_11char_traitsIcEENS_9allocatorIcEEEEPNS_11__tree_nodeIS6_PvEElEmmB8ue170006Ev, symObjAddr: 0x3B4C4, symBinAddr: 0x10003E4B0, symSize: 0xA8 }
  - { offsetInCU: 0x24594, offset: 0x24594, size: 0x8, addend: 0x0, symName: __ZNSt3__16__treeINS_12basic_stringIcNS_11char_traitsIcEENS_9allocatorIcEEEENS_4lessIS6_EENS4_IS6_EEE15__find_leaf_lowERPNS_15__tree_end_nodeIPNS_16__tree_node_baseIPvEEEERKS6_, symObjAddr: 0x3B56C, symBinAddr: 0x10003E558, symSize: 0x34C }
  - { offsetInCU: 0x245E9, offset: 0x245E9, size: 0x8, addend: 0x0, symName: __ZNSt3__115__tree_iteratorINS_12basic_stringIcNS_11char_traitsIcEENS_9allocatorIcEEEEPNS_11__tree_nodeIS6_PvEElEC1B8ue170006EPNS_15__tree_end_nodeIPNS_16__tree_node_baseIS8_EEEE, symObjAddr: 0x3B8B8, symBinAddr: 0x10003E8A4, symSize: 0x34 }
  - { offsetInCU: 0x24622, offset: 0x24622, size: 0x8, addend: 0x0, symName: __ZNSt3__115__tree_iteratorINS_12basic_stringIcNS_11char_traitsIcEENS_9allocatorIcEEEEPNS_11__tree_nodeIS6_PvEElEC2B8ue170006EPNS_15__tree_end_nodeIPNS_16__tree_node_baseIS8_EEEE, symObjAddr: 0x3B8EC, symBinAddr: 0x10003E8D8, symSize: 0x70 }
  - { offsetInCU: 0x2465B, offset: 0x2465B, size: 0x8, addend: 0x0, symName: __ZNSt3__16vectorINS_12basic_stringIcNS_11char_traitsIcEENS_9allocatorIcEEEENS4_IS6_EEEC2ERKS8_, symObjAddr: 0x3BB24, symBinAddr: 0x10003EB10, symSize: 0x388 }
  - { offsetInCU: 0x2469E, offset: 0x2469E, size: 0x8, addend: 0x0, symName: __ZNSt3__117__compressed_pairIPNS_12basic_stringIcNS_11char_traitsIcEENS_9allocatorIcEEEENS4_IS6_EEEC1B8ue170006IDnS8_EEOT_OT0_, symObjAddr: 0x3BEAC, symBinAddr: 0x10003EE98, symSize: 0x3C }
  - { offsetInCU: 0x246F6, offset: 0x246F6, size: 0x8, addend: 0x0, symName: __ZNSt3__16vectorINS_12basic_stringIcNS_11char_traitsIcEENS_9allocatorIcEEEENS4_IS6_EEE16__init_with_sizeB8ue170006IPS6_SA_EEvT_T0_m, symObjAddr: 0x3BEE8, symBinAddr: 0x10003EED4, symSize: 0x35C }
  - { offsetInCU: 0x24772, offset: 0x24772, size: 0x8, addend: 0x0, symName: __ZNSt3__117__compressed_pairIPNS_12basic_stringIcNS_11char_traitsIcEENS_9allocatorIcEEEENS4_IS6_EEEC2B8ue170006IDnS8_EEOT_OT0_, symObjAddr: 0x3C244, symBinAddr: 0x10003F230, symSize: 0x44 }
  - { offsetInCU: 0x247CA, offset: 0x247CA, size: 0x8, addend: 0x0, symName: __ZNSt3__122__compressed_pair_elemINS_9allocatorINS_12basic_stringIcNS_11char_traitsIcEENS1_IcEEEEEELi1ELb1EEC2B8ue170006IS7_vEEOT_, symObjAddr: 0x3C288, symBinAddr: 0x10003F274, symSize: 0x18 }
  - { offsetInCU: 0x2480C, offset: 0x2480C, size: 0x8, addend: 0x0, symName: __ZNSt3__16vectorINS_12basic_stringIcNS_11char_traitsIcEENS_9allocatorIcEEEENS4_IS6_EEE11__vallocateB8ue170006Em, symObjAddr: 0x3C518, symBinAddr: 0x10003F504, symSize: 0x428 }
  - { offsetInCU: 0x24856, offset: 0x24856, size: 0x8, addend: 0x0, symName: __ZNSt3__16vectorINS_12basic_stringIcNS_11char_traitsIcEENS_9allocatorIcEEEENS4_IS6_EEE18__construct_at_endIPS6_SA_EEvT_T0_m, symObjAddr: 0x3C940, symBinAddr: 0x10003F92C, symSize: 0x380 }
  - { offsetInCU: 0x248D4, offset: 0x248D4, size: 0x8, addend: 0x0, symName: __ZNSt3__128__exception_guard_exceptionsINS_6vectorINS_12basic_stringIcNS_11char_traitsIcEENS_9allocatorIcEEEENS5_IS7_EEE16__destroy_vectorEE10__completeB8ue170006Ev, symObjAddr: 0x3CCC0, symBinAddr: 0x10003FCAC, symSize: 0x8C }
  - { offsetInCU: 0x248FA, offset: 0x248FA, size: 0x8, addend: 0x0, symName: __ZNSt3__128__exception_guard_exceptionsINS_6vectorINS_12basic_stringIcNS_11char_traitsIcEENS_9allocatorIcEEEENS5_IS7_EEE16__destroy_vectorEED1B8ue170006Ev, symObjAddr: 0x3CD4C, symBinAddr: 0x10003FD38, symSize: 0x2C }
  - { offsetInCU: 0x24924, offset: 0x24924, size: 0x8, addend: 0x0, symName: __ZNSt3__128__exception_guard_exceptionsINS_6vectorINS_12basic_stringIcNS_11char_traitsIcEENS_9allocatorIcEEEENS5_IS7_EEE16__destroy_vectorEEC1B8ue170006ESA_, symObjAddr: 0x3CD78, symBinAddr: 0x10003FD64, symSize: 0x238 }
  - { offsetInCU: 0x24961, offset: 0x24961, size: 0x8, addend: 0x0, symName: __ZNSt3__128__exception_guard_exceptionsINS_6vectorINS_12basic_stringIcNS_11char_traitsIcEENS_9allocatorIcEEEENS5_IS7_EEE16__destroy_vectorEEC2B8ue170006ESA_, symObjAddr: 0x3CFB0, symBinAddr: 0x10003FF9C, symSize: 0x264 }
  - { offsetInCU: 0x249BB, offset: 0x249BB, size: 0x8, addend: 0x0, symName: __ZNSt3__119__unwrap_range_implIPNS_12basic_stringIcNS_11char_traitsIcEENS_9allocatorIcEEEES7_E8__unwrapB8ue170006ES7_S7_, symObjAddr: 0x3DCA0, symBinAddr: 0x100040C8C, symSize: 0x30C }
  - { offsetInCU: 0x249EE, offset: 0x249EE, size: 0x8, addend: 0x0, symName: __ZNSt3__14pairIPNS_12basic_stringIcNS_11char_traitsIcEENS_9allocatorIcEEEES7_EC1B8ue170006IS7_S7_LPv0EEEOT_OT0_, symObjAddr: 0x3DFAC, symBinAddr: 0x100040F98, symSize: 0x3C }
  - { offsetInCU: 0x24A4C, offset: 0x24A4C, size: 0x8, addend: 0x0, symName: __ZNSt3__14pairIPNS_12basic_stringIcNS_11char_traitsIcEENS_9allocatorIcEEEES7_EC2B8ue170006IS7_S7_LPv0EEEOT_OT0_, symObjAddr: 0x3DFE8, symBinAddr: 0x100040FD4, symSize: 0x138 }
  - { offsetInCU: 0x24AAA, offset: 0x24AAA, size: 0x8, addend: 0x0, symName: __ZNSt3__129_AllocatorDestroyRangeReverseINS_9allocatorINS_12basic_stringIcNS_11char_traitsIcEENS1_IcEEEEEEPS6_EC1B8ue170006ERS7_RS8_SB_, symObjAddr: 0x3E318, symBinAddr: 0x100041304, symSize: 0x44 }
  - { offsetInCU: 0x24B01, offset: 0x24B01, size: 0x8, addend: 0x0, symName: __ZNSt3__116allocator_traitsINS_9allocatorINS_12basic_stringIcNS_11char_traitsIcEENS1_IcEEEEEEE9constructB8ue170006IS6_JRS6_EvvEEvRS7_PT_DpOT0_, symObjAddr: 0x3E35C, symBinAddr: 0x100041348, symSize: 0x30 }
  - { offsetInCU: 0x24B55, offset: 0x24B55, size: 0x8, addend: 0x0, symName: __ZNSt3__128__exception_guard_exceptionsINS_29_AllocatorDestroyRangeReverseINS_9allocatorINS_12basic_stringIcNS_11char_traitsIcEENS2_IcEEEEEEPS7_EEE10__completeB8ue170006Ev, symObjAddr: 0x3E38C, symBinAddr: 0x100041378, symSize: 0x8C }
  - { offsetInCU: 0x24B7B, offset: 0x24B7B, size: 0x8, addend: 0x0, symName: __ZNSt3__128__exception_guard_exceptionsINS_29_AllocatorDestroyRangeReverseINS_9allocatorINS_12basic_stringIcNS_11char_traitsIcEENS2_IcEEEEEEPS7_EEED1B8ue170006Ev, symObjAddr: 0x3E418, symBinAddr: 0x100041404, symSize: 0x2C }
  - { offsetInCU: 0x24BA5, offset: 0x24BA5, size: 0x8, addend: 0x0, symName: __ZNSt3__128__exception_guard_exceptionsINS_29_AllocatorDestroyRangeReverseINS_9allocatorINS_12basic_stringIcNS_11char_traitsIcEENS2_IcEEEEEEPS7_EEEC1B8ue170006ESA_, symObjAddr: 0x3E444, symBinAddr: 0x100041430, symSize: 0x34 }
  - { offsetInCU: 0x24BDE, offset: 0x24BDE, size: 0x8, addend: 0x0, symName: __ZNSt3__128__exception_guard_exceptionsINS_29_AllocatorDestroyRangeReverseINS_9allocatorINS_12basic_stringIcNS_11char_traitsIcEENS2_IcEEEEEEPS7_EEEC2B8ue170006ESA_, symObjAddr: 0x3E478, symBinAddr: 0x100041464, symSize: 0xA4 }
  - { offsetInCU: 0x24C17, offset: 0x24C17, size: 0x8, addend: 0x0, symName: __ZNSt3__129_AllocatorDestroyRangeReverseINS_9allocatorINS_12basic_stringIcNS_11char_traitsIcEENS1_IcEEEEEEPS6_EC2B8ue170006ERS7_RS8_SB_, symObjAddr: 0x3E51C, symBinAddr: 0x100041508, symSize: 0x104 }
  - { offsetInCU: 0x24C6E, offset: 0x24C6E, size: 0x8, addend: 0x0, symName: __ZNSt3__128__exception_guard_exceptionsINS_29_AllocatorDestroyRangeReverseINS_9allocatorINS_12basic_stringIcNS_11char_traitsIcEENS2_IcEEEEEEPS7_EEED2B8ue170006Ev, symObjAddr: 0x3E65C, symBinAddr: 0x100041648, symSize: 0xBC }
  - { offsetInCU: 0x24C98, offset: 0x24C98, size: 0x8, addend: 0x0, symName: __ZNKSt3__129_AllocatorDestroyRangeReverseINS_9allocatorINS_12basic_stringIcNS_11char_traitsIcEENS1_IcEEEEEEPS6_EclB8ue170006Ev, symObjAddr: 0x3E718, symBinAddr: 0x100041704, symSize: 0x39C }
  - { offsetInCU: 0x24CBF, offset: 0x24CBF, size: 0x8, addend: 0x0, symName: __ZNSt3__118__unwrap_iter_implIPNS_12basic_stringIcNS_11char_traitsIcEENS_9allocatorIcEEEELb1EE8__unwrapB8ue170006ES7_, symObjAddr: 0x3ED6C, symBinAddr: 0x100041D58, symSize: 0x24 }
  - { offsetInCU: 0x24CE2, offset: 0x24CE2, size: 0x8, addend: 0x0, symName: __ZNSt3__118__unwrap_iter_implIPNS_12basic_stringIcNS_11char_traitsIcEENS_9allocatorIcEEEELb1EE8__rewrapB8ue170006ES7_S7_, symObjAddr: 0x3ED90, symBinAddr: 0x100041D7C, symSize: 0x58 }
  - { offsetInCU: 0x24D13, offset: 0x24D13, size: 0x8, addend: 0x0, symName: __ZNSt3__128__exception_guard_exceptionsINS_6vectorINS_12basic_stringIcNS_11char_traitsIcEENS_9allocatorIcEEEENS5_IS7_EEE16__destroy_vectorEED2B8ue170006Ev, symObjAddr: 0x3EDE8, symBinAddr: 0x100041DD4, symSize: 0xA8 }
  - { offsetInCU: 0x24D3D, offset: 0x24D3D, size: 0x8, addend: 0x0, symName: __ZNSt3__112__value_typeI8CStudentNS_15__list_iteratorIS1_PvEEE11__get_valueB8ue170006Ev, symObjAddr: 0x3EE90, symBinAddr: 0x100041E7C, symSize: 0x24 }
  - { offsetInCU: 0x24D63, offset: 0x24D63, size: 0x8, addend: 0x0, symName: __ZNKSt3__117__compressed_pairIPNS_11__tree_nodeINS_12__value_typeI8CStudentNS_15__list_iteratorIS3_PvEEEES5_EENS_22__tree_node_destructorINS_9allocatorIS8_EEEEE5firstB8ue170006Ev, symObjAddr: 0x3EEEC, symBinAddr: 0x100041ED8, symSize: 0x24 }
  - { offsetInCU: 0x24D89, offset: 0x24D89, size: 0x8, addend: 0x0, symName: __ZNKSt3__122__compressed_pair_elemIPNS_11__tree_nodeINS_12__value_typeI8CStudentNS_15__list_iteratorIS3_PvEEEES5_EELi0ELb0EE5__getB8ue170006Ev, symObjAddr: 0x3EF10, symBinAddr: 0x100041EFC, symSize: 0x14 }
  - { offsetInCU: 0x24DAF, offset: 0x24DAF, size: 0x8, addend: 0x0, symName: __ZNSt3__117__compressed_pairIPNS_11__tree_nodeINS_12__value_typeI8CStudentNS_15__list_iteratorIS3_PvEEEES5_EENS_22__tree_node_destructorINS_9allocatorIS8_EEEEE6secondB8ue170006Ev, symObjAddr: 0x3EF24, symBinAddr: 0x100041F10, symSize: 0x28 }
  - { offsetInCU: 0x24DD5, offset: 0x24DD5, size: 0x8, addend: 0x0, symName: __ZNSt3__122__compressed_pair_elemINS_22__tree_node_destructorINS_9allocatorINS_11__tree_nodeINS_12__value_typeI8CStudentNS_15__list_iteratorIS5_PvEEEES7_EEEEEELi1ELb0EE5__getB8ue170006Ev, symObjAddr: 0x3EF4C, symBinAddr: 0x100041F38, symSize: 0x14 }
  - { offsetInCU: 0x24DFB, offset: 0x24DFB, size: 0x8, addend: 0x0, symName: __ZNSt3__16__treeINS_12__value_typeI8CStudentNS_15__list_iteratorIS2_PvEEEENS_19__map_value_compareIS2_S6_NS_4lessIS2_EELb1EEENS_9allocatorIS6_EEE4sizeB8ue170006Ev, symObjAddr: 0x3EF60, symBinAddr: 0x100041F4C, symSize: 0x28 }
  - { offsetInCU: 0x24E21, offset: 0x24E21, size: 0x8, addend: 0x0, symName: __ZNSt3__117__compressed_pairImNS_19__map_value_compareI8CStudentNS_12__value_typeIS2_NS_15__list_iteratorIS2_PvEEEENS_4lessIS2_EELb1EEEE5firstB8ue170006Ev, symObjAddr: 0x3EF88, symBinAddr: 0x100041F74, symSize: 0x24 }
  - { offsetInCU: 0x24E47, offset: 0x24E47, size: 0x8, addend: 0x0, symName: __ZNSt3__117__compressed_pairIPNS_11__tree_nodeINS_12__value_typeI8CStudentNS_15__list_iteratorIS3_PvEEEES5_EENS_22__tree_node_destructorINS_9allocatorIS8_EEEEE5firstB8ue170006Ev, symObjAddr: 0x3EFAC, symBinAddr: 0x100041F98, symSize: 0x24 }
  - { offsetInCU: 0x24E6D, offset: 0x24E6D, size: 0x8, addend: 0x0, symName: __ZNSt3__122__compressed_pair_elemIPNS_11__tree_nodeINS_12__value_typeI8CStudentNS_15__list_iteratorIS3_PvEEEES5_EELi0ELb0EE5__getB8ue170006Ev, symObjAddr: 0x3EFD0, symBinAddr: 0x100041FBC, symSize: 0x14 }
  - { offsetInCU: 0x24E93, offset: 0x24E93, size: 0x8, addend: 0x0, symName: __ZNSt3__110unique_ptrINS_11__tree_nodeINS_12__value_typeI8CStudentNS_15__list_iteratorIS3_PvEEEES5_EENS_22__tree_node_destructorINS_9allocatorIS8_EEEEED2B8ue170006Ev, symObjAddr: 0x3EFE4, symBinAddr: 0x100041FD0, symSize: 0x30 }
  - { offsetInCU: 0x24EBD, offset: 0x24EBD, size: 0x8, addend: 0x0, symName: __ZNSt3__110unique_ptrINS_11__tree_nodeINS_12__value_typeI8CStudentNS_15__list_iteratorIS3_PvEEEES5_EENS_22__tree_node_destructorINS_9allocatorIS8_EEEEE5resetB8ue170006EPS8_, symObjAddr: 0x3F014, symBinAddr: 0x100042000, symSize: 0xEC }
  - { offsetInCU: 0x24F01, offset: 0x24F01, size: 0x8, addend: 0x0, symName: __ZNSt3__122__tree_node_destructorINS_9allocatorINS_11__tree_nodeINS_12__value_typeI8CStudentNS_15__list_iteratorIS4_PvEEEES6_EEEEEclB8ue170006EPS9_, symObjAddr: 0x3F100, symBinAddr: 0x1000420EC, symSize: 0x168 }
  - { offsetInCU: 0x24F36, offset: 0x24F36, size: 0x8, addend: 0x0, symName: __ZNSt3__116allocator_traitsINS_9allocatorINS_11__tree_nodeINS_12__value_typeI8CStudentNS_15__list_iteratorIS4_PvEEEES6_EEEEE7destroyB8ue170006INS_4pairIKS4_S7_EEvvEEvRSA_PT_, symObjAddr: 0x3F268, symBinAddr: 0x100042254, symSize: 0x28 }
  - { offsetInCU: 0x24F70, offset: 0x24F70, size: 0x8, addend: 0x0, symName: __ZNSt3__116allocator_traitsINS_9allocatorINS_11__tree_nodeINS_12__value_typeI8CStudentNS_15__list_iteratorIS4_PvEEEES6_EEEEE10deallocateB8ue170006ERSA_PS9_m, symObjAddr: 0x3F290, symBinAddr: 0x10004227C, symSize: 0x34 }
  - { offsetInCU: 0x24FB2, offset: 0x24FB2, size: 0x8, addend: 0x0, symName: __ZNSt3__19allocatorINS_11__tree_nodeINS_12__value_typeI8CStudentNS_15__list_iteratorIS3_PvEEEES5_EEE10deallocateB8ue170006EPS8_m, symObjAddr: 0x3F30C, symBinAddr: 0x1000422F8, symSize: 0x4C }
  - { offsetInCU: 0x24FF4, offset: 0x24FF4, size: 0x8, addend: 0x0, symName: __ZNSt3__115__tree_iteratorINS_12__value_typeI8CStudentNS_15__list_iteratorIS2_PvEEEEPNS_11__tree_nodeIS6_S4_EElEC2B8ue170006ES9_, symObjAddr: 0x3F358, symBinAddr: 0x100042344, symSize: 0x70 }
  - { offsetInCU: 0x2502D, offset: 0x2502D, size: 0x8, addend: 0x0, symName: __ZNSt3__14pairINS_15__tree_iteratorINS_12__value_typeI8CStudentNS_15__list_iteratorIS3_PvEEEEPNS_11__tree_nodeIS7_S5_EElEEbEC2B8ue170006ISB_RbLS5_0EEEOT_OT0_, symObjAddr: 0x3F3C8, symBinAddr: 0x1000423B4, symSize: 0x120 }
  - { offsetInCU: 0x2508B, offset: 0x2508B, size: 0x8, addend: 0x0, symName: __ZNSt3__14pairINS_14__map_iteratorINS_15__tree_iteratorINS_12__value_typeI8CStudentNS_15__list_iteratorIS4_PvEEEEPNS_11__tree_nodeIS8_S6_EElEEEEbEC2B8ue170006ISC_bLS6_0EEEONS0_IT_T0_EE, symObjAddr: 0x3F4E8, symBinAddr: 0x1000424D4, symSize: 0x2E8 }
  - { offsetInCU: 0x250DE, offset: 0x250DE, size: 0x8, addend: 0x0, symName: __ZNSt3__114__map_iteratorINS_15__tree_iteratorINS_12__value_typeI8CStudentNS_15__list_iteratorIS3_PvEEEEPNS_11__tree_nodeIS7_S5_EElEEEC1B8ue170006ESB_, symObjAddr: 0x3F7D0, symBinAddr: 0x1000427BC, symSize: 0x238 }
  - { offsetInCU: 0x2511C, offset: 0x2511C, size: 0x8, addend: 0x0, symName: __ZNSt3__114__map_iteratorINS_15__tree_iteratorINS_12__value_typeI8CStudentNS_15__list_iteratorIS3_PvEEEEPNS_11__tree_nodeIS7_S5_EElEEEC2B8ue170006ESB_, symObjAddr: 0x3FA08, symBinAddr: 0x1000429F4, symSize: 0x204 }
  - { offsetInCU: 0x2515A, offset: 0x2515A, size: 0x8, addend: 0x0, symName: __ZNSt3__110__list_impI8CStudentNS_9allocatorIS1_EEE3endB8ue170006Ev, symObjAddr: 0x3FC0C, symBinAddr: 0x100042BF8, symSize: 0x204 }
  - { offsetInCU: 0x25181, offset: 0x25181, size: 0x8, addend: 0x0, symName: __ZNKSt3__110__list_impI8CStudentNS_9allocatorIS1_EEE13__end_as_linkB8ue170006Ev, symObjAddr: 0x3FE10, symBinAddr: 0x100042DFC, symSize: 0x50 }
  - { offsetInCU: 0x251A7, offset: 0x251A7, size: 0x8, addend: 0x0, symName: __ZNSt3__115__list_iteratorI8CStudentPvEC1B8ue170006EPNS_16__list_node_baseIS1_S2_EE, symObjAddr: 0x3FE60, symBinAddr: 0x100042E4C, symSize: 0x34 }
  - { offsetInCU: 0x251E0, offset: 0x251E0, size: 0x8, addend: 0x0, symName: __ZNSt3__126__list_node_pointer_traitsI8CStudentPvE26__unsafe_link_pointer_castB8ue170006EPNS_16__list_node_baseIS1_S2_EE, symObjAddr: 0x3FE94, symBinAddr: 0x100042E80, symSize: 0x14 }
  - { offsetInCU: 0x25204, offset: 0x25204, size: 0x8, addend: 0x0, symName: __ZNSt3__116__list_node_baseI8CStudentPvE6__selfB8ue170006Ev, symObjAddr: 0x3FEA8, symBinAddr: 0x100042E94, symSize: 0x24 }
  - { offsetInCU: 0x25230, offset: 0x25230, size: 0x8, addend: 0x0, symName: __ZNSt3__114pointer_traitsIPNS_16__list_node_baseI8CStudentPvEEE10pointer_toB8ue170006ERS4_, symObjAddr: 0x3FECC, symBinAddr: 0x100042EB8, symSize: 0x14 }
  - { offsetInCU: 0x25253, offset: 0x25253, size: 0x8, addend: 0x0, symName: __ZNSt3__115__list_iteratorI8CStudentPvEC2B8ue170006EPNS_16__list_node_baseIS1_S2_EE, symObjAddr: 0x3FEE0, symBinAddr: 0x100042ECC, symSize: 0x70 }
  - { offsetInCU: 0x2528C, offset: 0x2528C, size: 0x8, addend: 0x0, symName: __ZNSt3__14pairIK8CStudentNS_15__list_iteratorIS1_PvEEEC2B8ue170006IRS2_S5_LS4_0EEEOT_OT0_, symObjAddr: 0x3FF50, symBinAddr: 0x100042F3C, symSize: 0x4C }
  - { offsetInCU: 0x252EA, offset: 0x252EA, size: 0x8, addend: 0x0, symName: __ZNSt3__14pairIK8CStudentNS_15__list_iteratorIS1_PvEEED2Ev, symObjAddr: 0x3FF9C, symBinAddr: 0x100042F88, symSize: 0x2C }
  - { offsetInCU: 0x2531C, offset: 0x2531C, size: 0x8, addend: 0x0, symName: __ZNSt3__110__get_pairILm0EE3getB8ue170006INS_14__map_iteratorINS_15__tree_iteratorINS_12__value_typeI8CStudentNS_15__list_iteratorIS6_PvEEEEPNS_11__tree_nodeISA_S8_EElEEEEbEEOT_ONS_4pairISG_T0_EE, symObjAddr: 0x3FFC8, symBinAddr: 0x100042FB4, symSize: 0x14 }
  - { offsetInCU: 0x25358, offset: 0x25358, size: 0x8, addend: 0x0, symName: __ZNSt3__110__get_pairILm1EE3getB8ue170006INS_14__map_iteratorINS_15__tree_iteratorINS_12__value_typeI8CStudentNS_15__list_iteratorIS6_PvEEEEPNS_11__tree_nodeISA_S8_EElEEEEbEEOT0_ONS_4pairIT_SG_EE, symObjAddr: 0x3FFDC, symBinAddr: 0x100042FC8, symSize: 0x18 }
  - { offsetInCU: 0x2538E, offset: 0x2538E, size: 0x8, addend: 0x0, symName: __ZNSt3__110__list_impI8CStudentNS_9allocatorIS1_EEE12__node_allocB8ue170006Ev, symObjAddr: 0x3FFF4, symBinAddr: 0x100042FE0, symSize: 0x28 }
  - { offsetInCU: 0x253B4, offset: 0x253B4, size: 0x8, addend: 0x0, symName: __ZNSt3__14listI8CStudentNS_9allocatorIS1_EEE15__allocate_nodeB8ue170006ERNS2_INS_11__list_nodeIS1_PvEEEE, symObjAddr: 0x4001C, symBinAddr: 0x100043008, symSize: 0x24C }
  - { offsetInCU: 0x253FB, offset: 0x253FB, size: 0x8, addend: 0x0, symName: __ZNSt3__116allocator_traitsINS_9allocatorINS_11__list_nodeI8CStudentPvEEEEE9constructB8ue170006IS3_JRKS3_EvvEEvRS6_PT_DpOT0_, symObjAddr: 0x40268, symBinAddr: 0x100043254, symSize: 0x30 }
  - { offsetInCU: 0x2544F, offset: 0x2544F, size: 0x8, addend: 0x0, symName: __ZNKSt3__110unique_ptrINS_11__list_nodeI8CStudentPvEENS_22__allocator_destructorINS_9allocatorIS4_EEEEEptB8ue170006Ev, symObjAddr: 0x40298, symBinAddr: 0x100043284, symSize: 0x6C }
  - { offsetInCU: 0x25475, offset: 0x25475, size: 0x8, addend: 0x0, symName: __ZNSt3__14listI8CStudentNS_9allocatorIS1_EEE20__link_nodes_at_backEPNS_16__list_node_baseIS1_PvEES8_, symObjAddr: 0x40304, symBinAddr: 0x1000432F0, symSize: 0x1CC }
  - { offsetInCU: 0x254BB, offset: 0x254BB, size: 0x8, addend: 0x0, symName: __ZNKSt3__110unique_ptrINS_11__list_nodeI8CStudentPvEENS_22__allocator_destructorINS_9allocatorIS4_EEEEE3getB8ue170006Ev, symObjAddr: 0x404D0, symBinAddr: 0x1000434BC, symSize: 0x6C }
  - { offsetInCU: 0x254E1, offset: 0x254E1, size: 0x8, addend: 0x0, symName: __ZNSt3__111__list_nodeI8CStudentPvE9__as_linkB8ue170006Ev, symObjAddr: 0x4053C, symBinAddr: 0x100043528, symSize: 0x24 }
  - { offsetInCU: 0x25507, offset: 0x25507, size: 0x8, addend: 0x0, symName: __ZNSt3__110__list_impI8CStudentNS_9allocatorIS1_EEE4__szB8ue170006Ev, symObjAddr: 0x40560, symBinAddr: 0x10004354C, symSize: 0x28 }
  - { offsetInCU: 0x2552D, offset: 0x2552D, size: 0x8, addend: 0x0, symName: __ZNSt3__110unique_ptrINS_11__list_nodeI8CStudentPvEENS_22__allocator_destructorINS_9allocatorIS4_EEEEE7releaseB8ue170006Ev, symObjAddr: 0x40588, symBinAddr: 0x100043574, symSize: 0xB8 }
  - { offsetInCU: 0x25562, offset: 0x25562, size: 0x8, addend: 0x0, symName: __ZNSt3__110unique_ptrINS_11__list_nodeI8CStudentPvEENS_22__allocator_destructorINS_9allocatorIS4_EEEEED1B8ue170006Ev, symObjAddr: 0x40640, symBinAddr: 0x10004362C, symSize: 0x2C }
  - { offsetInCU: 0x2558C, offset: 0x2558C, size: 0x8, addend: 0x0, symName: __ZNSt3__117__compressed_pairImNS_9allocatorINS_11__list_nodeI8CStudentPvEEEEE6secondB8ue170006Ev, symObjAddr: 0x4066C, symBinAddr: 0x100043658, symSize: 0x24 }
  - { offsetInCU: 0x255B2, offset: 0x255B2, size: 0x8, addend: 0x0, symName: __ZNSt3__122__compressed_pair_elemINS_9allocatorINS_11__list_nodeI8CStudentPvEEEELi1ELb1EE5__getB8ue170006Ev, symObjAddr: 0x40690, symBinAddr: 0x10004367C, symSize: 0x14 }
  - { offsetInCU: 0x255D8, offset: 0x255D8, size: 0x8, addend: 0x0, symName: __ZNSt3__116allocator_traitsINS_9allocatorINS_11__list_nodeI8CStudentPvEEEEE8allocateB8ue170006ERS6_m, symObjAddr: 0x406A4, symBinAddr: 0x100043690, symSize: 0x2C }
  - { offsetInCU: 0x2560B, offset: 0x2560B, size: 0x8, addend: 0x0, symName: __ZNSt3__122__allocator_destructorINS_9allocatorINS_11__list_nodeI8CStudentPvEEEEEC1B8ue170006ERS6_m, symObjAddr: 0x406D0, symBinAddr: 0x1000436BC, symSize: 0x3C }
  - { offsetInCU: 0x25657, offset: 0x25657, size: 0x8, addend: 0x0, symName: __ZNSt3__110unique_ptrINS_11__list_nodeI8CStudentPvEENS_22__allocator_destructorINS_9allocatorIS4_EEEEEC1B8ue170006ILb1EvEEPS4_NS_16__dependent_typeINS_27__unique_ptr_deleter_sfinaeIS8_EEXT_EE20__good_rval_ref_typeE, symObjAddr: 0x4070C, symBinAddr: 0x1000436F8, symSize: 0x3C }
  - { offsetInCU: 0x256A8, offset: 0x256A8, size: 0x8, addend: 0x0, symName: __ZNSt3__19allocatorINS_11__list_nodeI8CStudentPvEEE8allocateB8ue170006Em, symObjAddr: 0x40748, symBinAddr: 0x100043734, symSize: 0x60 }
  - { offsetInCU: 0x256E7, offset: 0x256E7, size: 0x8, addend: 0x0, symName: __ZNSt3__116allocator_traitsINS_9allocatorINS_11__list_nodeI8CStudentPvEEEEE8max_sizeB8ue170006IS6_vvEEmRKS6_, symObjAddr: 0x407A8, symBinAddr: 0x100043794, symSize: 0x28 }
  - { offsetInCU: 0x25712, offset: 0x25712, size: 0x8, addend: 0x0, symName: __ZNSt3__122__allocator_destructorINS_9allocatorINS_11__list_nodeI8CStudentPvEEEEEC2B8ue170006ERS6_m, symObjAddr: 0x407D0, symBinAddr: 0x1000437BC, symSize: 0xBC }
  - { offsetInCU: 0x25758, offset: 0x25758, size: 0x8, addend: 0x0, symName: __ZNSt3__110unique_ptrINS_11__list_nodeI8CStudentPvEENS_22__allocator_destructorINS_9allocatorIS4_EEEEEC2B8ue170006ILb1EvEEPS4_NS_16__dependent_typeINS_27__unique_ptr_deleter_sfinaeIS8_EEXT_EE20__good_rval_ref_typeE, symObjAddr: 0x4088C, symBinAddr: 0x100043878, symSize: 0x21C }
  - { offsetInCU: 0x257AF, offset: 0x257AF, size: 0x8, addend: 0x0, symName: __ZNSt3__117__compressed_pairIPNS_11__list_nodeI8CStudentPvEENS_22__allocator_destructorINS_9allocatorIS4_EEEEEC1B8ue170006IRS5_S9_EEOT_OT0_, symObjAddr: 0x40AA8, symBinAddr: 0x100043A94, symSize: 0x3C }
  - { offsetInCU: 0x25807, offset: 0x25807, size: 0x8, addend: 0x0, symName: __ZNSt3__117__compressed_pairIPNS_11__list_nodeI8CStudentPvEENS_22__allocator_destructorINS_9allocatorIS4_EEEEEC2B8ue170006IRS5_S9_EEOT_OT0_, symObjAddr: 0x40AE4, symBinAddr: 0x100043AD0, symSize: 0x48 }
  - { offsetInCU: 0x2585F, offset: 0x2585F, size: 0x8, addend: 0x0, symName: __ZNSt3__122__compressed_pair_elemIPNS_11__list_nodeI8CStudentPvEELi0ELb0EEC2B8ue170006IRS5_vEEOT_, symObjAddr: 0x40B2C, symBinAddr: 0x100043B18, symSize: 0xB0 }
  - { offsetInCU: 0x258A1, offset: 0x258A1, size: 0x8, addend: 0x0, symName: __ZNSt3__122__compressed_pair_elemINS_22__allocator_destructorINS_9allocatorINS_11__list_nodeI8CStudentPvEEEEEELi1ELb0EEC2B8ue170006IS8_vEEOT_, symObjAddr: 0x40BDC, symBinAddr: 0x100043BC8, symSize: 0x38 }
  - { offsetInCU: 0x258E3, offset: 0x258E3, size: 0x8, addend: 0x0, symName: __ZNKSt3__117__compressed_pairIPNS_11__list_nodeI8CStudentPvEENS_22__allocator_destructorINS_9allocatorIS4_EEEEE5firstB8ue170006Ev, symObjAddr: 0x40C50, symBinAddr: 0x100043C3C, symSize: 0x24 }
  - { offsetInCU: 0x25909, offset: 0x25909, size: 0x8, addend: 0x0, symName: __ZNKSt3__122__compressed_pair_elemIPNS_11__list_nodeI8CStudentPvEELi0ELb0EE5__getB8ue170006Ev, symObjAddr: 0x40C74, symBinAddr: 0x100043C60, symSize: 0x14 }
  - { offsetInCU: 0x2592F, offset: 0x2592F, size: 0x8, addend: 0x0, symName: __ZNSt3__117__compressed_pairImNS_9allocatorINS_11__list_nodeI8CStudentPvEEEEE5firstB8ue170006Ev, symObjAddr: 0x40C88, symBinAddr: 0x100043C74, symSize: 0x24 }
  - { offsetInCU: 0x25955, offset: 0x25955, size: 0x8, addend: 0x0, symName: __ZNSt3__117__compressed_pairIPNS_11__list_nodeI8CStudentPvEENS_22__allocator_destructorINS_9allocatorIS4_EEEEE5firstB8ue170006Ev, symObjAddr: 0x40CAC, symBinAddr: 0x100043C98, symSize: 0x24 }
  - { offsetInCU: 0x2597B, offset: 0x2597B, size: 0x8, addend: 0x0, symName: __ZNSt3__122__compressed_pair_elemIPNS_11__list_nodeI8CStudentPvEELi0ELb0EE5__getB8ue170006Ev, symObjAddr: 0x40CD0, symBinAddr: 0x100043CBC, symSize: 0x14 }
  - { offsetInCU: 0x259A1, offset: 0x259A1, size: 0x8, addend: 0x0, symName: __ZNSt3__110unique_ptrINS_11__list_nodeI8CStudentPvEENS_22__allocator_destructorINS_9allocatorIS4_EEEEED2B8ue170006Ev, symObjAddr: 0x40CE4, symBinAddr: 0x100043CD0, symSize: 0x30 }
  - { offsetInCU: 0x259CB, offset: 0x259CB, size: 0x8, addend: 0x0, symName: __ZNSt3__110unique_ptrINS_11__list_nodeI8CStudentPvEENS_22__allocator_destructorINS_9allocatorIS4_EEEEE5resetB8ue170006EPS4_, symObjAddr: 0x40D14, symBinAddr: 0x100043D00, symSize: 0xEC }
  - { offsetInCU: 0x25A0F, offset: 0x25A0F, size: 0x8, addend: 0x0, symName: __ZNSt3__117__compressed_pairIPNS_11__list_nodeI8CStudentPvEENS_22__allocator_destructorINS_9allocatorIS4_EEEEE6secondB8ue170006Ev, symObjAddr: 0x40E00, symBinAddr: 0x100043DEC, symSize: 0x28 }
  - { offsetInCU: 0x25A35, offset: 0x25A35, size: 0x8, addend: 0x0, symName: __ZNSt3__122__allocator_destructorINS_9allocatorINS_11__list_nodeI8CStudentPvEEEEEclB8ue170006EPS5_, symObjAddr: 0x40E28, symBinAddr: 0x100043E14, symSize: 0xB8 }
  - { offsetInCU: 0x25A69, offset: 0x25A69, size: 0x8, addend: 0x0, symName: __ZNSt3__122__compressed_pair_elemINS_22__allocator_destructorINS_9allocatorINS_11__list_nodeI8CStudentPvEEEEEELi1ELb0EE5__getB8ue170006Ev, symObjAddr: 0x40EE0, symBinAddr: 0x100043ECC, symSize: 0x14 }
  - { offsetInCU: 0x25A8F, offset: 0x25A8F, size: 0x8, addend: 0x0, symName: __ZNSt3__116allocator_traitsINS_9allocatorINS_11__list_nodeI8CStudentPvEEEEE10deallocateB8ue170006ERS6_PS5_m, symObjAddr: 0x40EF4, symBinAddr: 0x100043EE0, symSize: 0x34 }
  - { offsetInCU: 0x25AD1, offset: 0x25AD1, size: 0x8, addend: 0x0, symName: __ZNSt3__19allocatorINS_11__list_nodeI8CStudentPvEEE10deallocateB8ue170006EPS4_m, symObjAddr: 0x40F28, symBinAddr: 0x100043F14, symSize: 0x50 }
  - { offsetInCU: 0x25B13, offset: 0x25B13, size: 0x8, addend: 0x0, symName: __ZNSt3__115__list_iteratorI8CStudentPvEppB8ue170006Ev, symObjAddr: 0x41054, symBinAddr: 0x100044040, symSize: 0xE0 }
  - { offsetInCU: 0x25B39, offset: 0x25B39, size: 0x8, addend: 0x0, symName: __ZNSt3__115__list_iteratorI8CStudentPvEmmB8ue170006Ev, symObjAddr: 0x41134, symBinAddr: 0x100044120, symSize: 0xDC }
  - { offsetInCU: 0x25B5F, offset: 0x25B5F, size: 0x8, addend: 0x0, symName: __ZNSt3__114pointer_traitsIPNS_4pairIK8CStudentNS_15__list_iteratorIS2_PvEEEEE10pointer_toB8ue170006ERS7_, symObjAddr: 0x41210, symBinAddr: 0x1000441FC, symSize: 0x14 }
  - { offsetInCU: 0x25B82, offset: 0x25B82, size: 0x8, addend: 0x0, symName: __ZNKSt3__115__tree_iteratorINS_12__value_typeI8CStudentNS_15__list_iteratorIS2_PvEEEEPNS_11__tree_nodeIS6_S4_EElEptB8ue170006Ev, symObjAddr: 0x41224, symBinAddr: 0x100044210, symSize: 0x2C }
  - { offsetInCU: 0x25BA8, offset: 0x25BA8, size: 0x8, addend: 0x0, symName: __ZNSt3__114pointer_traitsIPNS_12__value_typeI8CStudentNS_15__list_iteratorIS2_PvEEEEE10pointer_toB8ue170006ERS6_, symObjAddr: 0x41250, symBinAddr: 0x10004423C, symSize: 0x14 }
  - { offsetInCU: 0x25BCB, offset: 0x25BCB, size: 0x8, addend: 0x0, symName: __ZNKSt3__115__tree_iteratorINS_12__value_typeI8CStudentNS_15__list_iteratorIS2_PvEEEEPNS_11__tree_nodeIS6_S4_EElE8__get_npB8ue170006Ev, symObjAddr: 0x41264, symBinAddr: 0x100044250, symSize: 0x60 }
  - { offsetInCU: 0x25BF1, offset: 0x25BF1, size: 0x8, addend: 0x0, symName: __ZNKSt3__14listI8CStudentNS_9allocatorIS1_EEE5beginB8ue170006Ev, symObjAddr: 0x412C4, symBinAddr: 0x1000442B0, symSize: 0x234 }
  - { offsetInCU: 0x25C18, offset: 0x25C18, size: 0x8, addend: 0x0, symName: __ZNKSt3__14listI8CStudentNS_9allocatorIS1_EEE3endB8ue170006Ev, symObjAddr: 0x414F8, symBinAddr: 0x1000444E4, symSize: 0x234 }
  - { offsetInCU: 0x25C3F, offset: 0x25C3F, size: 0x8, addend: 0x0, symName: __ZNKSt3__121__list_const_iteratorI8CStudentPvEdeB8ue170006Ev, symObjAddr: 0x41760, symBinAddr: 0x10004474C, symSize: 0x68 }
  - { offsetInCU: 0x25C65, offset: 0x25C65, size: 0x8, addend: 0x0, symName: __ZNK7CFilter7isEmptyEv, symObjAddr: 0x417C8, symBinAddr: 0x1000447B4, symSize: 0x8C }
  - { offsetInCU: 0x25C8B, offset: 0x25C8B, size: 0x8, addend: 0x0, symName: __ZNK7CFilter12passesFilterERK8CStudent, symObjAddr: 0x41854, symBinAddr: 0x100044840, symSize: 0xADC }
  - { offsetInCU: 0x25CC1, offset: 0x25CC1, size: 0x8, addend: 0x0, symName: __ZNSt3__121__list_const_iteratorI8CStudentPvEppB8ue170006Ev, symObjAddr: 0x42330, symBinAddr: 0x10004531C, symSize: 0xE0 }
  - { offsetInCU: 0x25CE7, offset: 0x25CE7, size: 0x8, addend: 0x0, symName: __ZNSt3__14listI8CStudentNS_9allocatorIS1_EEE4sortI22CStudentDeptComparatorEEvT_, symObjAddr: 0x42410, symBinAddr: 0x1000453FC, symSize: 0x3B8 }
  - { offsetInCU: 0x25D2A, offset: 0x25D2A, size: 0x8, addend: 0x0, symName: __ZN22CStudentDeptComparatorC1ERK5CSort, symObjAddr: 0x427C8, symBinAddr: 0x1000457B4, symSize: 0x34 }
  - { offsetInCU: 0x25D63, offset: 0x25D63, size: 0x8, addend: 0x0, symName: __ZN22CStudentDeptComparatorD1Ev, symObjAddr: 0x427FC, symBinAddr: 0x1000457E8, symSize: 0x2C }
  - { offsetInCU: 0x25D90, offset: 0x25D90, size: 0x8, addend: 0x0, symName: __ZNKSt3__110__list_impI8CStudentNS_9allocatorIS1_EEE5beginB8ue170006Ev, symObjAddr: 0x42828, symBinAddr: 0x100045814, symSize: 0x234 }
  - { offsetInCU: 0x25DB7, offset: 0x25DB7, size: 0x8, addend: 0x0, symName: __ZNSt3__121__list_const_iteratorI8CStudentPvEC1B8ue170006EPNS_16__list_node_baseIS1_S2_EE, symObjAddr: 0x42A5C, symBinAddr: 0x100045A48, symSize: 0x34 }
  - { offsetInCU: 0x25DF0, offset: 0x25DF0, size: 0x8, addend: 0x0, symName: __ZNSt3__121__list_const_iteratorI8CStudentPvEC2B8ue170006EPNS_16__list_node_baseIS1_S2_EE, symObjAddr: 0x42A90, symBinAddr: 0x100045A7C, symSize: 0x70 }
  - { offsetInCU: 0x25E29, offset: 0x25E29, size: 0x8, addend: 0x0, symName: __ZNKSt3__110__list_impI8CStudentNS_9allocatorIS1_EEE3endB8ue170006Ev, symObjAddr: 0x42B00, symBinAddr: 0x100045AEC, symSize: 0x204 }
  - { offsetInCU: 0x25E50, offset: 0x25E50, size: 0x8, addend: 0x0, symName: __ZNSt3__116__list_node_baseI8CStudentPvE9__as_nodeB8ue170006Ev, symObjAddr: 0x42DBC, symBinAddr: 0x100045DA8, symSize: 0x24 }
  - { offsetInCU: 0x25E76, offset: 0x25E76, size: 0x8, addend: 0x0, symName: __ZNKSt3__15arrayIbLm5EEixB8ue170006Em, symObjAddr: 0x42DE0, symBinAddr: 0x100045DCC, symSize: 0x20 }
  - { offsetInCU: 0x25EAA, offset: 0x25EAA, size: 0x8, addend: 0x0, symName: __ZNKSt3__13setINS_6vectorINS_12basic_stringIcNS_11char_traitsIcEENS_9allocatorIcEEEENS5_IS7_EEEENS_4lessIS9_EENS5_IS9_EEE5emptyB8ue170006Ev, symObjAddr: 0x42E00, symBinAddr: 0x100045DEC, symSize: 0x78 }
  - { offsetInCU: 0x25ED0, offset: 0x25ED0, size: 0x8, addend: 0x0, symName: __ZNKSt3__13setINS_6vectorINS_12basic_stringIcNS_11char_traitsIcEENS_9allocatorIcEEEENS5_IS7_EEEENS_4lessIS9_EENS5_IS9_EEE8containsB8ue170006ERKS9_, symObjAddr: 0x42E78, symBinAddr: 0x100045E64, symSize: 0x2BC }
  - { offsetInCU: 0x25F07, offset: 0x25F07, size: 0x8, addend: 0x0, symName: __ZNK8CStudent11getNamesVecEv, symObjAddr: 0x43134, symBinAddr: 0x100046120, symSize: 0x3C }
  - { offsetInCU: 0x25F2D, offset: 0x25F2D, size: 0x8, addend: 0x0, symName: __ZNK8CStudent6getDOBEv, symObjAddr: 0x433E4, symBinAddr: 0x1000463D0, symSize: 0x24C }
  - { offsetInCU: 0x25F54, offset: 0x25F54, size: 0x8, addend: 0x0, symName: __ZNK8CStudent13getEnrollmentEv, symObjAddr: 0x438A4, symBinAddr: 0x100046890, symSize: 0x8C }
  - { offsetInCU: 0x25F7A, offset: 0x25F7A, size: 0x8, addend: 0x0, symName: __ZNKSt3__16__treeINS_6vectorINS_12basic_stringIcNS_11char_traitsIcEENS_9allocatorIcEEEENS5_IS7_EEEENS_4lessIS9_EENS5_IS9_EEE4sizeB8ue170006Ev, symObjAddr: 0x43930, symBinAddr: 0x10004691C, symSize: 0x28 }
  - { offsetInCU: 0x25FA0, offset: 0x25FA0, size: 0x8, addend: 0x0, symName: __ZNKSt3__117__compressed_pairImNS_4lessINS_6vectorINS_12basic_stringIcNS_11char_traitsIcEENS_9allocatorIcEEEENS6_IS8_EEEEEEE5firstB8ue170006Ev, symObjAddr: 0x43958, symBinAddr: 0x100046944, symSize: 0x24 }
  - { offsetInCU: 0x25FC6, offset: 0x25FC6, size: 0x8, addend: 0x0, symName: __ZNKSt3__13setINS_6vectorINS_12basic_stringIcNS_11char_traitsIcEENS_9allocatorIcEEEENS5_IS7_EEEENS_4lessIS9_EENS5_IS9_EEE4findB8ue170006ERKS9_, symObjAddr: 0x439B0, symBinAddr: 0x10004699C, symSize: 0x23C }
  - { offsetInCU: 0x25FFD, offset: 0x25FFD, size: 0x8, addend: 0x0, symName: __ZNKSt3__13setINS_6vectorINS_12basic_stringIcNS_11char_traitsIcEENS_9allocatorIcEEEENS5_IS7_EEEENS_4lessIS9_EENS5_IS9_EEE3endB8ue170006Ev, symObjAddr: 0x43BEC, symBinAddr: 0x100046BD8, symSize: 0x234 }
  - { offsetInCU: 0x26024, offset: 0x26024, size: 0x8, addend: 0x0, symName: __ZNKSt3__16__treeINS_6vectorINS_12basic_stringIcNS_11char_traitsIcEENS_9allocatorIcEEEENS5_IS7_EEEENS_4lessIS9_EENS5_IS9_EEE4findIS9_EENS_21__tree_const_iteratorIS9_PNS_11__tree_nodeIS9_PvEElEERKT_, symObjAddr: 0x43ED8, symBinAddr: 0x100046EC4, symSize: 0x3FC }
  - { offsetInCU: 0x26079, offset: 0x26079, size: 0x8, addend: 0x0, symName: __ZNKSt3__16__treeINS_6vectorINS_12basic_stringIcNS_11char_traitsIcEENS_9allocatorIcEEEENS5_IS7_EEEENS_4lessIS9_EENS5_IS9_EEE13__lower_boundIS9_EENS_21__tree_const_iteratorIS9_PNS_11__tree_nodeIS9_PvEElEERKT_SJ_PNS_15__tree_end_nodeIPNS_16__tree_node_baseISH_EEEE, symObjAddr: 0x442D4, symBinAddr: 0x1000472C0, symSize: 0x2E0 }
  - { offsetInCU: 0x260DB, offset: 0x260DB, size: 0x8, addend: 0x0, symName: __ZNKSt3__16__treeINS_6vectorINS_12basic_stringIcNS_11char_traitsIcEENS_9allocatorIcEEEENS5_IS7_EEEENS_4lessIS9_EENS5_IS9_EEE6__rootB8ue170006Ev, symObjAddr: 0x445B4, symBinAddr: 0x1000475A0, symSize: 0x6C }
  - { offsetInCU: 0x26101, offset: 0x26101, size: 0x8, addend: 0x0, symName: __ZNKSt3__16__treeINS_6vectorINS_12basic_stringIcNS_11char_traitsIcEENS_9allocatorIcEEEENS5_IS7_EEEENS_4lessIS9_EENS5_IS9_EEE10__end_nodeB8ue170006Ev, symObjAddr: 0x44620, symBinAddr: 0x10004760C, symSize: 0x2C }
  - { offsetInCU: 0x26127, offset: 0x26127, size: 0x8, addend: 0x0, symName: __ZNKSt3__16__treeINS_6vectorINS_12basic_stringIcNS_11char_traitsIcEENS_9allocatorIcEEEENS5_IS7_EEEENS_4lessIS9_EENS5_IS9_EEE3endB8ue170006Ev, symObjAddr: 0x4464C, symBinAddr: 0x100047638, symSize: 0x204 }
  - { offsetInCU: 0x2614E, offset: 0x2614E, size: 0x8, addend: 0x0, symName: __ZNKSt3__16__treeINS_6vectorINS_12basic_stringIcNS_11char_traitsIcEENS_9allocatorIcEEEENS5_IS7_EEEENS_4lessIS9_EENS5_IS9_EEE10value_compB8ue170006Ev, symObjAddr: 0x44850, symBinAddr: 0x10004783C, symSize: 0x28 }
  - { offsetInCU: 0x26174, offset: 0x26174, size: 0x8, addend: 0x0, symName: __ZNKSt3__14lessINS_6vectorINS_12basic_stringIcNS_11char_traitsIcEENS_9allocatorIcEEEENS5_IS7_EEEEEclB8ue170006ERKS9_SC_, symObjAddr: 0x44878, symBinAddr: 0x100047864, symSize: 0x2AC }
  - { offsetInCU: 0x261BB, offset: 0x261BB, size: 0x8, addend: 0x0, symName: __ZNKSt3__121__tree_const_iteratorINS_6vectorINS_12basic_stringIcNS_11char_traitsIcEENS_9allocatorIcEEEENS5_IS7_EEEEPNS_11__tree_nodeIS9_PvEElEdeB8ue170006Ev, symObjAddr: 0x44B24, symBinAddr: 0x100047B10, symSize: 0x28 }
  - { offsetInCU: 0x261E1, offset: 0x261E1, size: 0x8, addend: 0x0, symName: __ZNSt3__121__tree_const_iteratorINS_6vectorINS_12basic_stringIcNS_11char_traitsIcEENS_9allocatorIcEEEENS5_IS7_EEEEPNS_11__tree_nodeIS9_PvEElEC1B8ue170006EPNS_15__tree_end_nodeIPNS_16__tree_node_baseISB_EEEE, symObjAddr: 0x44B4C, symBinAddr: 0x100047B38, symSize: 0x34 }
  - { offsetInCU: 0x2621A, offset: 0x2621A, size: 0x8, addend: 0x0, symName: __ZNSt3__121__tree_const_iteratorINS_6vectorINS_12basic_stringIcNS_11char_traitsIcEENS_9allocatorIcEEEENS5_IS7_EEEEPNS_11__tree_nodeIS9_PvEElEC2B8ue170006EPNS_15__tree_end_nodeIPNS_16__tree_node_baseISB_EEEE, symObjAddr: 0x44B80, symBinAddr: 0x100047B6C, symSize: 0x70 }
  - { offsetInCU: 0x26253, offset: 0x26253, size: 0x8, addend: 0x0, symName: __ZNKSt3__117__compressed_pairINS_15__tree_end_nodeIPNS_16__tree_node_baseIPvEEEENS_9allocatorINS_11__tree_nodeINS_6vectorINS_12basic_stringIcNS_11char_traitsIcEENS7_IcEEEENS7_ISE_EEEES3_EEEEE5firstB8ue170006Ev, symObjAddr: 0x44BF0, symBinAddr: 0x100047BDC, symSize: 0x24 }
  - { offsetInCU: 0x26279, offset: 0x26279, size: 0x8, addend: 0x0, symName: __ZNKSt3__117__compressed_pairImNS_4lessINS_6vectorINS_12basic_stringIcNS_11char_traitsIcEENS_9allocatorIcEEEENS6_IS8_EEEEEEE6secondB8ue170006Ev, symObjAddr: 0x44C14, symBinAddr: 0x100047C00, symSize: 0x24 }
  - { offsetInCU: 0x2629F, offset: 0x2629F, size: 0x8, addend: 0x0, symName: __ZNKSt3__122__compressed_pair_elemINS_4lessINS_6vectorINS_12basic_stringIcNS_11char_traitsIcEENS_9allocatorIcEEEENS6_IS8_EEEEEELi1ELb1EE5__getB8ue170006Ev, symObjAddr: 0x44C38, symBinAddr: 0x100047C24, symSize: 0x14 }
  - { offsetInCU: 0x262C5, offset: 0x262C5, size: 0x8, addend: 0x0, symName: __ZNKSt3__121__tree_const_iteratorINS_6vectorINS_12basic_stringIcNS_11char_traitsIcEENS_9allocatorIcEEEENS5_IS7_EEEEPNS_11__tree_nodeIS9_PvEElE8__get_npB8ue170006Ev, symObjAddr: 0x44C4C, symBinAddr: 0x100047C38, symSize: 0x60 }
  - { offsetInCU: 0x262F1, offset: 0x262F1, size: 0x8, addend: 0x0, symName: __ZNSt3__14listI8CStudentNS_9allocatorIS1_EEE6__sortI22CStudentDeptComparatorEENS_15__list_iteratorIS1_PvEES9_S9_mRT_, symObjAddr: 0x44CAC, symBinAddr: 0x100047C98, symSize: 0xFA4 }
  - { offsetInCU: 0x26434, offset: 0x26434, size: 0x8, addend: 0x0, symName: __ZNSt3__14listI8CStudentNS_9allocatorIS1_EEE5beginB8ue170006Ev, symObjAddr: 0x45C50, symBinAddr: 0x100048C3C, symSize: 0x234 }
  - { offsetInCU: 0x2645B, offset: 0x2645B, size: 0x8, addend: 0x0, symName: __ZN22CStudentDeptComparatorclERK8CStudentS2_, symObjAddr: 0x45E84, symBinAddr: 0x100048E70, symSize: 0x15FC }
  - { offsetInCU: 0x26510, offset: 0x26510, size: 0x8, addend: 0x0, symName: __ZNKSt3__115__list_iteratorI8CStudentPvEdeB8ue170006Ev, symObjAddr: 0x47480, symBinAddr: 0x10004A46C, symSize: 0x68 }
  - { offsetInCU: 0x26536, offset: 0x26536, size: 0x8, addend: 0x0, symName: __ZNSt3__110__list_impI8CStudentNS_9allocatorIS1_EEE14__unlink_nodesEPNS_16__list_node_baseIS1_PvEES8_, symObjAddr: 0x474E8, symBinAddr: 0x10004A4D4, symSize: 0x1A8 }
  - { offsetInCU: 0x2656B, offset: 0x2656B, size: 0x8, addend: 0x0, symName: __ZNSt3__14listI8CStudentNS_9allocatorIS1_EEE12__link_nodesEPNS_16__list_node_baseIS1_PvEES8_S8_, symObjAddr: 0x47690, symBinAddr: 0x10004A67C, symSize: 0x1C8 }
  - { offsetInCU: 0x265B5, offset: 0x265B5, size: 0x8, addend: 0x0, symName: __ZNK5CSort10getKeyListEv, symObjAddr: 0x47BCC, symBinAddr: 0x10004ABB8, symSize: 0x38 }
  - { offsetInCU: 0x265DB, offset: 0x265DB, size: 0x8, addend: 0x0, symName: __ZNSt3__16vectorINS_4pairI8ESortKeybEENS_9allocatorIS3_EEE5beginB8ue170006Ev, symObjAddr: 0x47C04, symBinAddr: 0x10004ABF0, symSize: 0x268 }
  - { offsetInCU: 0x26604, offset: 0x26604, size: 0x8, addend: 0x0, symName: __ZNSt3__16vectorINS_4pairI8ESortKeybEENS_9allocatorIS3_EEE3endB8ue170006Ev, symObjAddr: 0x47E6C, symBinAddr: 0x10004AE58, symSize: 0x26C }
  - { offsetInCU: 0x2662D, offset: 0x2662D, size: 0x8, addend: 0x0, symName: __ZNKSt3__111__wrap_iterIPNS_4pairI8ESortKeybEEEdeB8ue170006Ev, symObjAddr: 0x4810C, symBinAddr: 0x10004B0F8, symSize: 0x60 }
  - { offsetInCU: 0x26653, offset: 0x26653, size: 0x8, addend: 0x0, symName: __ZNK8CStudent7getNameEv, symObjAddr: 0x481B4, symBinAddr: 0x10004B1A0, symSize: 0x38 }
  - { offsetInCU: 0x26679, offset: 0x26679, size: 0x8, addend: 0x0, symName: __ZNSt3__111__wrap_iterIPNS_4pairI8ESortKeybEEEppB8ue170006Ev, symObjAddr: 0x481EC, symBinAddr: 0x10004B1D8, symSize: 0x68 }
  - { offsetInCU: 0x2669F, offset: 0x2669F, size: 0x8, addend: 0x0, symName: __ZNSt3__16vectorINS_4pairI8ESortKeybEENS_9allocatorIS3_EEED1B8ue170006Ev, symObjAddr: 0x48254, symBinAddr: 0x10004B240, symSize: 0x2C }
  - { offsetInCU: 0x266C9, offset: 0x266C9, size: 0x8, addend: 0x0, symName: __ZNSt3__16vectorINS_4pairI8ESortKeybEENS_9allocatorIS3_EEEC1ERKS6_, symObjAddr: 0x48280, symBinAddr: 0x10004B26C, symSize: 0x34 }
  - { offsetInCU: 0x26704, offset: 0x26704, size: 0x8, addend: 0x0, symName: __ZNSt3__16vectorINS_4pairI8ESortKeybEENS_9allocatorIS3_EEEC2ERKS6_, symObjAddr: 0x482B4, symBinAddr: 0x10004B2A0, symSize: 0x388 }
  - { offsetInCU: 0x2674C, offset: 0x2674C, size: 0x8, addend: 0x0, symName: __ZNSt3__116allocator_traitsINS_9allocatorINS_4pairI8ESortKeybEEEEE37select_on_container_copy_constructionB8ue170006IS5_vvEES5_RKS5_, symObjAddr: 0x4863C, symBinAddr: 0x10004B628, symSize: 0x10 }
  - { offsetInCU: 0x2677B, offset: 0x2677B, size: 0x8, addend: 0x0, symName: __ZNKSt3__16vectorINS_4pairI8ESortKeybEENS_9allocatorIS3_EEE7__allocB8ue170006Ev, symObjAddr: 0x4864C, symBinAddr: 0x10004B638, symSize: 0x28 }
  - { offsetInCU: 0x267A7, offset: 0x267A7, size: 0x8, addend: 0x0, symName: __ZNSt3__117__compressed_pairIPNS_4pairI8ESortKeybEENS_9allocatorIS3_EEEC1B8ue170006IDnS6_EEOT_OT0_, symObjAddr: 0x48674, symBinAddr: 0x10004B660, symSize: 0x3C }
  - { offsetInCU: 0x267FF, offset: 0x267FF, size: 0x8, addend: 0x0, symName: __ZNSt3__16vectorINS_4pairI8ESortKeybEENS_9allocatorIS3_EEE16__init_with_sizeB8ue170006IPS3_S8_EEvT_T0_m, symObjAddr: 0x486B0, symBinAddr: 0x10004B69C, symSize: 0x35C }
  - { offsetInCU: 0x2687B, offset: 0x2687B, size: 0x8, addend: 0x0, symName: __ZNKSt3__16vectorINS_4pairI8ESortKeybEENS_9allocatorIS3_EEE4sizeB8ue170006Ev, symObjAddr: 0x48A0C, symBinAddr: 0x10004B9F8, symSize: 0xB0 }
  - { offsetInCU: 0x268A1, offset: 0x268A1, size: 0x8, addend: 0x0, symName: __ZNKSt3__117__compressed_pairIPNS_4pairI8ESortKeybEENS_9allocatorIS3_EEE6secondB8ue170006Ev, symObjAddr: 0x48ABC, symBinAddr: 0x10004BAA8, symSize: 0x24 }
  - { offsetInCU: 0x268C7, offset: 0x268C7, size: 0x8, addend: 0x0, symName: __ZNKSt3__122__compressed_pair_elemINS_9allocatorINS_4pairI8ESortKeybEEEELi1ELb1EE5__getB8ue170006Ev, symObjAddr: 0x48AE0, symBinAddr: 0x10004BACC, symSize: 0x14 }
  - { offsetInCU: 0x268ED, offset: 0x268ED, size: 0x8, addend: 0x0, symName: __ZNSt3__117__compressed_pairIPNS_4pairI8ESortKeybEENS_9allocatorIS3_EEEC2B8ue170006IDnS6_EEOT_OT0_, symObjAddr: 0x48AF4, symBinAddr: 0x10004BAE0, symSize: 0x44 }
  - { offsetInCU: 0x26945, offset: 0x26945, size: 0x8, addend: 0x0, symName: __ZNSt3__122__compressed_pair_elemIPNS_4pairI8ESortKeybEELi0ELb0EEC2B8ue170006IDnvEEOT_, symObjAddr: 0x48B38, symBinAddr: 0x10004BB24, symSize: 0x64 }
  - { offsetInCU: 0x26987, offset: 0x26987, size: 0x8, addend: 0x0, symName: __ZNSt3__122__compressed_pair_elemINS_9allocatorINS_4pairI8ESortKeybEEEELi1ELb1EEC2B8ue170006IS5_vEEOT_, symObjAddr: 0x48B9C, symBinAddr: 0x10004BB88, symSize: 0x18 }
  - { offsetInCU: 0x269C9, offset: 0x269C9, size: 0x8, addend: 0x0, symName: __ZNSt3__16vectorINS_4pairI8ESortKeybEENS_9allocatorIS3_EEE16__destroy_vectorC1B8ue170006ERS6_, symObjAddr: 0x48E2C, symBinAddr: 0x10004BE18, symSize: 0x34 }
  - { offsetInCU: 0x26A02, offset: 0x26A02, size: 0x8, addend: 0x0, symName: __ZNSt3__16vectorINS_4pairI8ESortKeybEENS_9allocatorIS3_EEE11__vallocateB8ue170006Em, symObjAddr: 0x48E60, symBinAddr: 0x10004BE4C, symSize: 0x420 }
  - { offsetInCU: 0x26A4C, offset: 0x26A4C, size: 0x8, addend: 0x0, symName: __ZNSt3__16vectorINS_4pairI8ESortKeybEENS_9allocatorIS3_EEE18__construct_at_endIPS3_S8_EEvT_T0_m, symObjAddr: 0x49280, symBinAddr: 0x10004C26C, symSize: 0x380 }
  - { offsetInCU: 0x26ACA, offset: 0x26ACA, size: 0x8, addend: 0x0, symName: __ZNSt3__128__exception_guard_exceptionsINS_6vectorINS_4pairI8ESortKeybEENS_9allocatorIS4_EEE16__destroy_vectorEE10__completeB8ue170006Ev, symObjAddr: 0x49600, symBinAddr: 0x10004C5EC, symSize: 0x8C }
  - { offsetInCU: 0x26AF0, offset: 0x26AF0, size: 0x8, addend: 0x0, symName: __ZNSt3__128__exception_guard_exceptionsINS_6vectorINS_4pairI8ESortKeybEENS_9allocatorIS4_EEE16__destroy_vectorEED1B8ue170006Ev, symObjAddr: 0x4968C, symBinAddr: 0x10004C678, symSize: 0x2C }
  - { offsetInCU: 0x26B1A, offset: 0x26B1A, size: 0x8, addend: 0x0, symName: __ZNSt3__128__exception_guard_exceptionsINS_6vectorINS_4pairI8ESortKeybEENS_9allocatorIS4_EEE16__destroy_vectorEEC1B8ue170006ES8_, symObjAddr: 0x496B8, symBinAddr: 0x10004C6A4, symSize: 0x238 }
  - { offsetInCU: 0x26B57, offset: 0x26B57, size: 0x8, addend: 0x0, symName: __ZNSt3__128__exception_guard_exceptionsINS_6vectorINS_4pairI8ESortKeybEENS_9allocatorIS4_EEE16__destroy_vectorEEC2B8ue170006ES8_, symObjAddr: 0x498F0, symBinAddr: 0x10004C8DC, symSize: 0x264 }
  - { offsetInCU: 0x26B94, offset: 0x26B94, size: 0x8, addend: 0x0, symName: __ZNSt3__16vectorINS_4pairI8ESortKeybEENS_9allocatorIS3_EEE16__destroy_vectorC2B8ue170006ERS6_, symObjAddr: 0x49B54, symBinAddr: 0x10004CB40, symSize: 0x70 }
  - { offsetInCU: 0x26BCD, offset: 0x26BCD, size: 0x8, addend: 0x0, symName: __ZNKSt3__16vectorINS_4pairI8ESortKeybEENS_9allocatorIS3_EEE8max_sizeEv, symObjAddr: 0x49BC4, symBinAddr: 0x10004CBB0, symSize: 0x2FC }
  - { offsetInCU: 0x26BF6, offset: 0x26BF6, size: 0x8, addend: 0x0, symName: __ZNKSt3__16vectorINS_4pairI8ESortKeybEENS_9allocatorIS3_EEE20__throw_length_errorB8ue170006Ev, symObjAddr: 0x49EC0, symBinAddr: 0x10004CEAC, symSize: 0x20 }
  - { offsetInCU: 0x26C1C, offset: 0x26C1C, size: 0x8, addend: 0x0, symName: __ZNSt3__16vectorINS_4pairI8ESortKeybEENS_9allocatorIS3_EEE7__allocB8ue170006Ev, symObjAddr: 0x4A16C, symBinAddr: 0x10004D158, symSize: 0x28 }
  - { offsetInCU: 0x26C42, offset: 0x26C42, size: 0x8, addend: 0x0, symName: __ZNSt3__16vectorINS_4pairI8ESortKeybEENS_9allocatorIS3_EEE9__end_capB8ue170006Ev, symObjAddr: 0x4A194, symBinAddr: 0x10004D180, symSize: 0x28 }
  - { offsetInCU: 0x26C68, offset: 0x26C68, size: 0x8, addend: 0x0, symName: __ZNKSt3__16vectorINS_4pairI8ESortKeybEENS_9allocatorIS3_EEE14__annotate_newB8ue170006Em, symObjAddr: 0x4A1BC, symBinAddr: 0x10004D1A8, symSize: 0xC0 }
  - { offsetInCU: 0x26C9D, offset: 0x26C9D, size: 0x8, addend: 0x0, symName: __ZNSt3__116allocator_traitsINS_9allocatorINS_4pairI8ESortKeybEEEEE8max_sizeB8ue170006IS5_vvEEmRKS5_, symObjAddr: 0x4A27C, symBinAddr: 0x10004D268, symSize: 0x28 }
  - { offsetInCU: 0x26CC8, offset: 0x26CC8, size: 0x8, addend: 0x0, symName: __ZNSt3__19allocatorINS_4pairI8ESortKeybEEE8allocateB8ue170006Em, symObjAddr: 0x4A2A4, symBinAddr: 0x10004D290, symSize: 0x5C }
  - { offsetInCU: 0x26CFC, offset: 0x26CFC, size: 0x8, addend: 0x0, symName: __ZNSt3__117__compressed_pairIPNS_4pairI8ESortKeybEENS_9allocatorIS3_EEE6secondB8ue170006Ev, symObjAddr: 0x4A300, symBinAddr: 0x10004D2EC, symSize: 0x24 }
  - { offsetInCU: 0x26D22, offset: 0x26D22, size: 0x8, addend: 0x0, symName: __ZNSt3__122__compressed_pair_elemINS_9allocatorINS_4pairI8ESortKeybEEEELi1ELb1EE5__getB8ue170006Ev, symObjAddr: 0x4A324, symBinAddr: 0x10004D310, symSize: 0x14 }
  - { offsetInCU: 0x26D48, offset: 0x26D48, size: 0x8, addend: 0x0, symName: __ZNSt3__117__compressed_pairIPNS_4pairI8ESortKeybEENS_9allocatorIS3_EEE5firstB8ue170006Ev, symObjAddr: 0x4A338, symBinAddr: 0x10004D324, symSize: 0x24 }
  - { offsetInCU: 0x26D6E, offset: 0x26D6E, size: 0x8, addend: 0x0, symName: __ZNSt3__122__compressed_pair_elemIPNS_4pairI8ESortKeybEELi0ELb0EE5__getB8ue170006Ev, symObjAddr: 0x4A35C, symBinAddr: 0x10004D348, symSize: 0x14 }
  - { offsetInCU: 0x26D94, offset: 0x26D94, size: 0x8, addend: 0x0, symName: __ZNKSt3__16vectorINS_4pairI8ESortKeybEENS_9allocatorIS3_EEE31__annotate_contiguous_containerEPKvS8_S8_S8_, symObjAddr: 0x4A370, symBinAddr: 0x10004D35C, symSize: 0x58 }
  - { offsetInCU: 0x26DF6, offset: 0x26DF6, size: 0x8, addend: 0x0, symName: __ZNKSt3__16vectorINS_4pairI8ESortKeybEENS_9allocatorIS3_EEE4dataB8ue170006Ev, symObjAddr: 0x4A3C8, symBinAddr: 0x10004D3B4, symSize: 0x64 }
  - { offsetInCU: 0x26E1C, offset: 0x26E1C, size: 0x8, addend: 0x0, symName: __ZNKSt3__16vectorINS_4pairI8ESortKeybEENS_9allocatorIS3_EEE8capacityB8ue170006Ev, symObjAddr: 0x4A42C, symBinAddr: 0x10004D418, symSize: 0xBC }
  - { offsetInCU: 0x26E42, offset: 0x26E42, size: 0x8, addend: 0x0, symName: __ZNKSt3__16vectorINS_4pairI8ESortKeybEENS_9allocatorIS3_EEE9__end_capB8ue170006Ev, symObjAddr: 0x4A4FC, symBinAddr: 0x10004D4E8, symSize: 0x28 }
  - { offsetInCU: 0x26E68, offset: 0x26E68, size: 0x8, addend: 0x0, symName: __ZNKSt3__117__compressed_pairIPNS_4pairI8ESortKeybEENS_9allocatorIS3_EEE5firstB8ue170006Ev, symObjAddr: 0x4A524, symBinAddr: 0x10004D510, symSize: 0x24 }
  - { offsetInCU: 0x26E8E, offset: 0x26E8E, size: 0x8, addend: 0x0, symName: __ZNKSt3__122__compressed_pair_elemIPNS_4pairI8ESortKeybEELi0ELb0EE5__getB8ue170006Ev, symObjAddr: 0x4A548, symBinAddr: 0x10004D534, symSize: 0x14 }
  - { offsetInCU: 0x26ED0, offset: 0x26ED0, size: 0x8, addend: 0x0, symName: __ZNSt3__16vectorINS_4pairI8ESortKeybEENS_9allocatorIS3_EEE21_ConstructTransactionC1B8ue170006ERS6_m, symObjAddr: 0x4A55C, symBinAddr: 0x10004D548, symSize: 0x3C }
  - { offsetInCU: 0x26F18, offset: 0x26F18, size: 0x8, addend: 0x0, symName: __ZNSt3__16vectorINS_4pairI8ESortKeybEENS_9allocatorIS3_EEE21_ConstructTransactionD1B8ue170006Ev, symObjAddr: 0x4A874, symBinAddr: 0x10004D860, symSize: 0x2C }
  - { offsetInCU: 0x26F42, offset: 0x26F42, size: 0x8, addend: 0x0, symName: __ZNSt3__16vectorINS_4pairI8ESortKeybEENS_9allocatorIS3_EEE21_ConstructTransactionC2B8ue170006ERS6_m, symObjAddr: 0x4A8A0, symBinAddr: 0x10004D88C, symSize: 0x1D0 }
  - { offsetInCU: 0x26F8A, offset: 0x26F8A, size: 0x8, addend: 0x0, symName: __ZNKSt3__16vectorINS_4pairI8ESortKeybEENS_9allocatorIS3_EEE19__annotate_increaseB8ue170006Em, symObjAddr: 0x4AA70, symBinAddr: 0x10004DA5C, symSize: 0xD8 }
  - { offsetInCU: 0x26FDC, offset: 0x26FDC, size: 0x8, addend: 0x0, symName: __ZNSt3__119__unwrap_range_implIPNS_4pairI8ESortKeybEES4_E8__unwrapB8ue170006ES4_S4_, symObjAddr: 0x4B2F8, symBinAddr: 0x10004E2E4, symSize: 0x30C }
  - { offsetInCU: 0x27015, offset: 0x27015, size: 0x8, addend: 0x0, symName: __ZNSt3__14pairIPNS0_I8ESortKeybEES3_EC1B8ue170006IS3_S3_LPv0EEEOT_OT0_, symObjAddr: 0x4B604, symBinAddr: 0x10004E5F0, symSize: 0x3C }
  - { offsetInCU: 0x27073, offset: 0x27073, size: 0x8, addend: 0x0, symName: __ZNSt3__14pairIPNS0_I8ESortKeybEES3_EC2B8ue170006IS3_S3_LPv0EEEOT_OT0_, symObjAddr: 0x4B640, symBinAddr: 0x10004E62C, symSize: 0x138 }
  - { offsetInCU: 0x270D1, offset: 0x270D1, size: 0x8, addend: 0x0, symName: __ZNSt3__129_AllocatorDestroyRangeReverseINS_9allocatorINS_4pairI8ESortKeybEEEEPS4_EC1B8ue170006ERS5_RS6_S9_, symObjAddr: 0x4B970, symBinAddr: 0x10004E95C, symSize: 0x44 }
  - { offsetInCU: 0x27128, offset: 0x27128, size: 0x8, addend: 0x0, symName: __ZNSt3__116allocator_traitsINS_9allocatorINS_4pairI8ESortKeybEEEEE9constructB8ue170006IS4_JRS4_EvvEEvRS5_PT_DpOT0_, symObjAddr: 0x4B9B4, symBinAddr: 0x10004E9A0, symSize: 0x30 }
  - { offsetInCU: 0x2717C, offset: 0x2717C, size: 0x8, addend: 0x0, symName: __ZNSt3__128__exception_guard_exceptionsINS_29_AllocatorDestroyRangeReverseINS_9allocatorINS_4pairI8ESortKeybEEEEPS5_EEE10__completeB8ue170006Ev, symObjAddr: 0x4B9E4, symBinAddr: 0x10004E9D0, symSize: 0x8C }
  - { offsetInCU: 0x271A2, offset: 0x271A2, size: 0x8, addend: 0x0, symName: __ZNSt3__128__exception_guard_exceptionsINS_29_AllocatorDestroyRangeReverseINS_9allocatorINS_4pairI8ESortKeybEEEEPS5_EEED1B8ue170006Ev, symObjAddr: 0x4BA70, symBinAddr: 0x10004EA5C, symSize: 0x2C }
  - { offsetInCU: 0x271CC, offset: 0x271CC, size: 0x8, addend: 0x0, symName: __ZNSt3__128__exception_guard_exceptionsINS_29_AllocatorDestroyRangeReverseINS_9allocatorINS_4pairI8ESortKeybEEEEPS5_EEEC1B8ue170006ES8_, symObjAddr: 0x4BA9C, symBinAddr: 0x10004EA88, symSize: 0x34 }
  - { offsetInCU: 0x27205, offset: 0x27205, size: 0x8, addend: 0x0, symName: __ZNSt3__128__exception_guard_exceptionsINS_29_AllocatorDestroyRangeReverseINS_9allocatorINS_4pairI8ESortKeybEEEEPS5_EEEC2B8ue170006ES8_, symObjAddr: 0x4BAD0, symBinAddr: 0x10004EABC, symSize: 0xA4 }
  - { offsetInCU: 0x2723E, offset: 0x2723E, size: 0x8, addend: 0x0, symName: __ZNSt3__129_AllocatorDestroyRangeReverseINS_9allocatorINS_4pairI8ESortKeybEEEEPS4_EC2B8ue170006ERS5_RS6_S9_, symObjAddr: 0x4BB74, symBinAddr: 0x10004EB60, symSize: 0x104 }
  - { offsetInCU: 0x27295, offset: 0x27295, size: 0x8, addend: 0x0, symName: __ZNSt3__128__exception_guard_exceptionsINS_29_AllocatorDestroyRangeReverseINS_9allocatorINS_4pairI8ESortKeybEEEEPS5_EEED2B8ue170006Ev, symObjAddr: 0x4BCB8, symBinAddr: 0x10004ECA4, symSize: 0xBC }
  - { offsetInCU: 0x272BF, offset: 0x272BF, size: 0x8, addend: 0x0, symName: __ZNKSt3__129_AllocatorDestroyRangeReverseINS_9allocatorINS_4pairI8ESortKeybEEEEPS4_EclB8ue170006Ev, symObjAddr: 0x4BD74, symBinAddr: 0x10004ED60, symSize: 0x39C }
  - { offsetInCU: 0x272E6, offset: 0x272E6, size: 0x8, addend: 0x0, symName: __ZNSt3__116reverse_iteratorIPNS_4pairI8ESortKeybEEEC1B8ue170006ES4_, symObjAddr: 0x4C3C8, symBinAddr: 0x10004F3B4, symSize: 0x34 }
  - { offsetInCU: 0x2731E, offset: 0x2731E, size: 0x8, addend: 0x0, symName: __ZNSt3__116allocator_traitsINS_9allocatorINS_4pairI8ESortKeybEEEEE7destroyB8ue170006IS4_vvEEvRS5_PT_, symObjAddr: 0x4C444, symBinAddr: 0x10004F430, symSize: 0x28 }
  - { offsetInCU: 0x27358, offset: 0x27358, size: 0x8, addend: 0x0, symName: __ZNSt3__116reverse_iteratorIPNS_4pairI8ESortKeybEEEppB8ue170006Ev, symObjAddr: 0x4C490, symBinAddr: 0x10004F47C, symSize: 0x6C }
  - { offsetInCU: 0x2737E, offset: 0x2737E, size: 0x8, addend: 0x0, symName: __ZNKSt3__116reverse_iteratorIPNS_4pairI8ESortKeybEEE4baseB8ue170006Ev, symObjAddr: 0x4C4FC, symBinAddr: 0x10004F4E8, symSize: 0x64 }
  - { offsetInCU: 0x273AA, offset: 0x273AA, size: 0x8, addend: 0x0, symName: __ZNSt3__119__to_address_helperINS_16reverse_iteratorIPNS_4pairI8ESortKeybEEEEvE6__callB8ue170006ERKS6_, symObjAddr: 0x4C594, symBinAddr: 0x10004F580, symSize: 0x44 }
  - { offsetInCU: 0x273CD, offset: 0x273CD, size: 0x8, addend: 0x0, symName: __ZNKSt3__116reverse_iteratorIPNS_4pairI8ESortKeybEEEptB8ue170006Ev, symObjAddr: 0x4C5D8, symBinAddr: 0x10004F5C4, symSize: 0x6C }
  - { offsetInCU: 0x273F3, offset: 0x273F3, size: 0x8, addend: 0x0, symName: __ZNSt3__116reverse_iteratorIPNS_4pairI8ESortKeybEEEC2B8ue170006ES4_, symObjAddr: 0x4C934, symBinAddr: 0x10004F920, symSize: 0xB8 }
  - { offsetInCU: 0x2742B, offset: 0x2742B, size: 0x8, addend: 0x0, symName: __ZNSt3__118__unwrap_iter_implIPNS_4pairI8ESortKeybEELb1EE8__unwrapB8ue170006ES4_, symObjAddr: 0x4C9EC, symBinAddr: 0x10004F9D8, symSize: 0x24 }
  - { offsetInCU: 0x2744E, offset: 0x2744E, size: 0x8, addend: 0x0, symName: __ZNSt3__118__unwrap_iter_implIPNS_4pairI8ESortKeybEELb1EE8__rewrapB8ue170006ES4_S4_, symObjAddr: 0x4CA10, symBinAddr: 0x10004F9FC, symSize: 0x50 }
  - { offsetInCU: 0x2747F, offset: 0x2747F, size: 0x8, addend: 0x0, symName: __ZNSt3__16vectorINS_4pairI8ESortKeybEENS_9allocatorIS3_EEE21_ConstructTransactionD2B8ue170006Ev, symObjAddr: 0x4CA60, symBinAddr: 0x10004FA4C, symSize: 0x278 }
  - { offsetInCU: 0x274A9, offset: 0x274A9, size: 0x8, addend: 0x0, symName: __ZNKSt3__16vectorINS_4pairI8ESortKeybEENS_9allocatorIS3_EEE17__annotate_shrinkB8ue170006Em, symObjAddr: 0x4CCD8, symBinAddr: 0x10004FCC4, symSize: 0xC8 }
  - { offsetInCU: 0x274DE, offset: 0x274DE, size: 0x8, addend: 0x0, symName: __ZNSt3__128__exception_guard_exceptionsINS_6vectorINS_4pairI8ESortKeybEENS_9allocatorIS4_EEE16__destroy_vectorEED2B8ue170006Ev, symObjAddr: 0x4CDA0, symBinAddr: 0x10004FD8C, symSize: 0xBC }
  - { offsetInCU: 0x27508, offset: 0x27508, size: 0x8, addend: 0x0, symName: __ZNSt3__16vectorINS_4pairI8ESortKeybEENS_9allocatorIS3_EEE16__destroy_vectorclB8ue170006Ev, symObjAddr: 0x4CE5C, symBinAddr: 0x10004FE48, symSize: 0x228 }
  - { offsetInCU: 0x2752E, offset: 0x2752E, size: 0x8, addend: 0x0, symName: __ZNSt3__16vectorINS_4pairI8ESortKeybEENS_9allocatorIS3_EEE7__clearB8ue170006Ev, symObjAddr: 0x4D084, symBinAddr: 0x100050070, symSize: 0x64 }
  - { offsetInCU: 0x27554, offset: 0x27554, size: 0x8, addend: 0x0, symName: __ZNKSt3__16vectorINS_4pairI8ESortKeybEENS_9allocatorIS3_EEE17__annotate_deleteB8ue170006Ev, symObjAddr: 0x4D0E8, symBinAddr: 0x1000500D4, symSize: 0xCC }
  - { offsetInCU: 0x2757A, offset: 0x2757A, size: 0x8, addend: 0x0, symName: __ZNSt3__116allocator_traitsINS_9allocatorINS_4pairI8ESortKeybEEEEE10deallocateB8ue170006ERS5_PS4_m, symObjAddr: 0x4D1B4, symBinAddr: 0x1000501A0, symSize: 0x34 }
  - { offsetInCU: 0x275BC, offset: 0x275BC, size: 0x8, addend: 0x0, symName: __ZNSt3__16vectorINS_4pairI8ESortKeybEENS_9allocatorIS3_EEE22__base_destruct_at_endB8ue170006EPS3_, symObjAddr: 0x4D1E8, symBinAddr: 0x1000501D4, symSize: 0x114 }
  - { offsetInCU: 0x27600, offset: 0x27600, size: 0x8, addend: 0x0, symName: __ZNSt3__19allocatorINS_4pairI8ESortKeybEEE10deallocateB8ue170006EPS3_m, symObjAddr: 0x4D2FC, symBinAddr: 0x1000502E8, symSize: 0x4C }
  - { offsetInCU: 0x27642, offset: 0x27642, size: 0x8, addend: 0x0, symName: __ZNSt3__16vectorINS_4pairI8ESortKeybEENS_9allocatorIS3_EEE11__make_iterB8ue170006EPS3_, symObjAddr: 0x4D348, symBinAddr: 0x100050334, symSize: 0x1FC }
  - { offsetInCU: 0x27679, offset: 0x27679, size: 0x8, addend: 0x0, symName: __ZNSt3__111__wrap_iterIPNS_4pairI8ESortKeybEEEC1B8ue170006ES4_, symObjAddr: 0x4D544, symBinAddr: 0x100050530, symSize: 0x34 }
  - { offsetInCU: 0x276B1, offset: 0x276B1, size: 0x8, addend: 0x0, symName: __ZNSt3__111__wrap_iterIPNS_4pairI8ESortKeybEEEC2B8ue170006ES4_, symObjAddr: 0x4D578, symBinAddr: 0x100050564, symSize: 0x70 }
  - { offsetInCU: 0x276E9, offset: 0x276E9, size: 0x8, addend: 0x0, symName: __ZNKSt3__111__wrap_iterIPNS_4pairI8ESortKeybEEE4baseB8ue170006Ev, symObjAddr: 0x4D630, symBinAddr: 0x10005061C, symSize: 0x60 }
  - { offsetInCU: 0x2771A, offset: 0x2771A, size: 0x8, addend: 0x0, symName: __ZNSt3__110__get_pairILm0EE3getB8ue170006I8ESortKeybEERKT_RKNS_4pairIS4_T0_EE, symObjAddr: 0x4D690, symBinAddr: 0x10005067C, symSize: 0x14 }
  - { offsetInCU: 0x27756, offset: 0x27756, size: 0x8, addend: 0x0, symName: __ZNSt3__110__get_pairILm1EE3getB8ue170006I8ESortKeybEERKT0_RKNS_4pairIT_S4_EE, symObjAddr: 0x4D6A4, symBinAddr: 0x100050690, symSize: 0x18 }
  - { offsetInCU: 0x2778C, offset: 0x2778C, size: 0x8, addend: 0x0, symName: __ZNSt3__16vectorINS_4pairI8ESortKeybEENS_9allocatorIS3_EEED2B8ue170006Ev, symObjAddr: 0x4D6BC, symBinAddr: 0x1000506A8, symSize: 0x1F4 }
  - { offsetInCU: 0x277B7, offset: 0x277B7, size: 0x8, addend: 0x0, symName: __ZNSt3__110__list_impI8CStudentNS_9allocatorIS1_EEE5beginB8ue170006Ev, symObjAddr: 0x4D8B0, symBinAddr: 0x10005089C, symSize: 0x234 }
  - { offsetInCU: 0x277DE, offset: 0x277DE, size: 0x8, addend: 0x0, symName: __ZN22CStudentDeptComparatorC2ERK5CSort, symObjAddr: 0x4DAE4, symBinAddr: 0x100050AD0, symSize: 0x34 }
  - { offsetInCU: 0x27817, offset: 0x27817, size: 0x8, addend: 0x0, symName: __ZN5CSortC1ERKS_, symObjAddr: 0x4DB18, symBinAddr: 0x100050B04, symSize: 0x34 }
  - { offsetInCU: 0x2784C, offset: 0x2784C, size: 0x8, addend: 0x0, symName: __ZN5CSortC2ERKS_, symObjAddr: 0x4DB4C, symBinAddr: 0x100050B38, symSize: 0x34 }
  - { offsetInCU: 0x27881, offset: 0x27881, size: 0x8, addend: 0x0, symName: __ZN22CStudentDeptComparatorD2Ev, symObjAddr: 0x4DB80, symBinAddr: 0x100050B6C, symSize: 0x2C }
  - { offsetInCU: 0x278AE, offset: 0x278AE, size: 0x8, addend: 0x0, symName: __ZN7CFilterC2Ev, symObjAddr: 0x4DBAC, symBinAddr: 0x100050B98, symSize: 0x1F4 }
  - { offsetInCU: 0x278D8, offset: 0x278D8, size: 0x8, addend: 0x0, symName: __ZNSt3__13setINS_6vectorINS_12basic_stringIcNS_11char_traitsIcEENS_9allocatorIcEEEENS5_IS7_EEEENS_4lessIS9_EENS5_IS9_EEEC1B8ue170006Ev, symObjAddr: 0x4DDA0, symBinAddr: 0x100050D8C, symSize: 0x2C }
  - { offsetInCU: 0x27902, offset: 0x27902, size: 0x8, addend: 0x0, symName: __ZNSt3__13setINS_6vectorINS_12basic_stringIcNS_11char_traitsIcEENS_9allocatorIcEEEENS5_IS7_EEEENS_4lessIS9_EENS5_IS9_EEED1B8ue170006Ev, symObjAddr: 0x4DDCC, symBinAddr: 0x100050DB8, symSize: 0x2C }
  - { offsetInCU: 0x2792C, offset: 0x2792C, size: 0x8, addend: 0x0, symName: __ZNSt3__13setINS_6vectorINS_12basic_stringIcNS_11char_traitsIcEENS_9allocatorIcEEEENS5_IS7_EEEENS_4lessIS9_EENS5_IS9_EEEC2B8ue170006Ev, symObjAddr: 0x4DDF8, symBinAddr: 0x100050DE4, symSize: 0x1D8 }
  - { offsetInCU: 0x27957, offset: 0x27957, size: 0x8, addend: 0x0, symName: __ZNSt3__16__treeINS_6vectorINS_12basic_stringIcNS_11char_traitsIcEENS_9allocatorIcEEEENS5_IS7_EEEENS_4lessIS9_EENS5_IS9_EEEC1ERKSB_, symObjAddr: 0x4DFD0, symBinAddr: 0x100050FBC, symSize: 0x34 }
  - { offsetInCU: 0x27992, offset: 0x27992, size: 0x8, addend: 0x0, symName: __ZNSt3__16__treeINS_6vectorINS_12basic_stringIcNS_11char_traitsIcEENS_9allocatorIcEEEENS5_IS7_EEEENS_4lessIS9_EENS5_IS9_EEEC2ERKSB_, symObjAddr: 0x4E004, symBinAddr: 0x100050FF0, symSize: 0x2CC }
  - { offsetInCU: 0x279CF, offset: 0x279CF, size: 0x8, addend: 0x0, symName: __ZNSt3__117__compressed_pairINS_15__tree_end_nodeIPNS_16__tree_node_baseIPvEEEENS_9allocatorINS_11__tree_nodeINS_6vectorINS_12basic_stringIcNS_11char_traitsIcEENS7_IcEEEENS7_ISE_EEEES3_EEEEEC1B8ue170006ILb1EvEEv, symObjAddr: 0x4E2D0, symBinAddr: 0x1000512BC, symSize: 0x2C }
  - { offsetInCU: 0x27A04, offset: 0x27A04, size: 0x8, addend: 0x0, symName: __ZNSt3__117__compressed_pairImNS_4lessINS_6vectorINS_12basic_stringIcNS_11char_traitsIcEENS_9allocatorIcEEEENS6_IS8_EEEEEEEC1B8ue170006IiRKSB_EEOT_OT0_, symObjAddr: 0x4E2FC, symBinAddr: 0x1000512E8, symSize: 0x3C }
  - { offsetInCU: 0x27A5C, offset: 0x27A5C, size: 0x8, addend: 0x0, symName: __ZNSt3__16__treeINS_6vectorINS_12basic_stringIcNS_11char_traitsIcEENS_9allocatorIcEEEENS5_IS7_EEEENS_4lessIS9_EENS5_IS9_EEE10__end_nodeB8ue170006Ev, symObjAddr: 0x4E338, symBinAddr: 0x100051324, symSize: 0x2C }
  - { offsetInCU: 0x27A82, offset: 0x27A82, size: 0x8, addend: 0x0, symName: __ZNSt3__16__treeINS_6vectorINS_12basic_stringIcNS_11char_traitsIcEENS_9allocatorIcEEEENS5_IS7_EEEENS_4lessIS9_EENS5_IS9_EEE12__begin_nodeB8ue170006Ev, symObjAddr: 0x4E364, symBinAddr: 0x100051350, symSize: 0x14 }
  - { offsetInCU: 0x27AA8, offset: 0x27AA8, size: 0x8, addend: 0x0, symName: __ZNSt3__117__compressed_pairINS_15__tree_end_nodeIPNS_16__tree_node_baseIPvEEEENS_9allocatorINS_11__tree_nodeINS_6vectorINS_12basic_stringIcNS_11char_traitsIcEENS7_IcEEEENS7_ISE_EEEES3_EEEEEC2B8ue170006ILb1EvEEv, symObjAddr: 0x4E378, symBinAddr: 0x100051364, symSize: 0x34 }
  - { offsetInCU: 0x27ADD, offset: 0x27ADD, size: 0x8, addend: 0x0, symName: __ZNSt3__122__compressed_pair_elemINS_9allocatorINS_11__tree_nodeINS_6vectorINS_12basic_stringIcNS_11char_traitsIcEENS1_IcEEEENS1_IS8_EEEEPvEEEELi1ELb1EEC2B8ue170006ENS_16__value_init_tagE, symObjAddr: 0x4E3AC, symBinAddr: 0x100051398, symSize: 0x2C }
  - { offsetInCU: 0x27B12, offset: 0x27B12, size: 0x8, addend: 0x0, symName: __ZNSt3__19allocatorINS_11__tree_nodeINS_6vectorINS_12basic_stringIcNS_11char_traitsIcEENS0_IcEEEENS0_IS7_EEEEPvEEEC2B8ue170006Ev, symObjAddr: 0x4E3D8, symBinAddr: 0x1000513C4, symSize: 0x2C }
  - { offsetInCU: 0x27B3C, offset: 0x27B3C, size: 0x8, addend: 0x0, symName: __ZNSt3__116__non_trivial_ifILb1ENS_9allocatorINS_11__tree_nodeINS_6vectorINS_12basic_stringIcNS_11char_traitsIcEENS1_IcEEEENS1_IS8_EEEEPvEEEEEC2B8ue170006Ev, symObjAddr: 0x4E404, symBinAddr: 0x1000513F0, symSize: 0x14 }
  - { offsetInCU: 0x27B66, offset: 0x27B66, size: 0x8, addend: 0x0, symName: __ZNSt3__117__compressed_pairImNS_4lessINS_6vectorINS_12basic_stringIcNS_11char_traitsIcEENS_9allocatorIcEEEENS6_IS8_EEEEEEEC2B8ue170006IiRKSB_EEOT_OT0_, symObjAddr: 0x4E418, symBinAddr: 0x100051404, symSize: 0x44 }
  - { offsetInCU: 0x27BBE, offset: 0x27BBE, size: 0x8, addend: 0x0, symName: __ZNSt3__122__compressed_pair_elemINS_4lessINS_6vectorINS_12basic_stringIcNS_11char_traitsIcEENS_9allocatorIcEEEENS6_IS8_EEEEEELi1ELb1EEC2B8ue170006IRKSB_vEEOT_, symObjAddr: 0x4E45C, symBinAddr: 0x100051448, symSize: 0x18 }
  - { offsetInCU: 0x27C00, offset: 0x27C00, size: 0x8, addend: 0x0, symName: __ZNSt3__117__compressed_pairINS_15__tree_end_nodeIPNS_16__tree_node_baseIPvEEEENS_9allocatorINS_11__tree_nodeINS_6vectorINS_12basic_stringIcNS_11char_traitsIcEENS7_IcEEEENS7_ISE_EEEES3_EEEEE5firstB8ue170006Ev, symObjAddr: 0x4E474, symBinAddr: 0x100051460, symSize: 0x24 }
  - { offsetInCU: 0x27C26, offset: 0x27C26, size: 0x8, addend: 0x0, symName: __ZNSt3__13setINS_6vectorINS_12basic_stringIcNS_11char_traitsIcEENS_9allocatorIcEEEENS5_IS7_EEEENS_4lessIS9_EENS5_IS9_EEED2B8ue170006Ev, symObjAddr: 0x4E498, symBinAddr: 0x100051484, symSize: 0x2C }
  - { offsetInCU: 0x27C50, offset: 0x27C50, size: 0x8, addend: 0x0, symName: __ZNSt3__16__treeINS_6vectorINS_12basic_stringIcNS_11char_traitsIcEENS_9allocatorIcEEEENS5_IS7_EEEENS_4lessIS9_EENS5_IS9_EEED1Ev, symObjAddr: 0x4E4C4, symBinAddr: 0x1000514B0, symSize: 0x2C }
  - { offsetInCU: 0x27C7C, offset: 0x27C7C, size: 0x8, addend: 0x0, symName: __ZNSt3__16__treeINS_6vectorINS_12basic_stringIcNS_11char_traitsIcEENS_9allocatorIcEEEENS5_IS7_EEEENS_4lessIS9_EENS5_IS9_EEED2Ev, symObjAddr: 0x4E4F0, symBinAddr: 0x1000514DC, symSize: 0x38 }
  - { offsetInCU: 0x27CA8, offset: 0x27CA8, size: 0x8, addend: 0x0, symName: __ZNSt3__16__treeINS_6vectorINS_12basic_stringIcNS_11char_traitsIcEENS_9allocatorIcEEEENS5_IS7_EEEENS_4lessIS9_EENS5_IS9_EEE7destroyEPNS_11__tree_nodeIS9_PvEE, symObjAddr: 0x4E528, symBinAddr: 0x100051514, symSize: 0x134 }
  - { offsetInCU: 0x27CF4, offset: 0x27CF4, size: 0x8, addend: 0x0, symName: __ZNSt3__16__treeINS_6vectorINS_12basic_stringIcNS_11char_traitsIcEENS_9allocatorIcEEEENS5_IS7_EEEENS_4lessIS9_EENS5_IS9_EEE12__node_allocB8ue170006Ev, symObjAddr: 0x4E65C, symBinAddr: 0x100051648, symSize: 0x28 }
  - { offsetInCU: 0x27D1A, offset: 0x27D1A, size: 0x8, addend: 0x0, symName: __ZNSt3__116allocator_traitsINS_9allocatorINS_11__tree_nodeINS_6vectorINS_12basic_stringIcNS_11char_traitsIcEENS1_IcEEEENS1_IS8_EEEEPvEEEEE7destroyB8ue170006ISA_vvEEvRSD_PT_, symObjAddr: 0x4E684, symBinAddr: 0x100051670, symSize: 0x28 }
  - { offsetInCU: 0x27D54, offset: 0x27D54, size: 0x8, addend: 0x0, symName: __ZNSt3__122__tree_key_value_typesINS_6vectorINS_12basic_stringIcNS_11char_traitsIcEENS_9allocatorIcEEEENS5_IS7_EEEEE9__get_ptrB8ue170006ERS9_, symObjAddr: 0x4E6AC, symBinAddr: 0x100051698, symSize: 0x14 }
  - { offsetInCU: 0x27D78, offset: 0x27D78, size: 0x8, addend: 0x0, symName: __ZNSt3__116allocator_traitsINS_9allocatorINS_11__tree_nodeINS_6vectorINS_12basic_stringIcNS_11char_traitsIcEENS1_IcEEEENS1_IS8_EEEEPvEEEEE10deallocateB8ue170006ERSD_PSC_m, symObjAddr: 0x4E6C0, symBinAddr: 0x1000516AC, symSize: 0x34 }
  - { offsetInCU: 0x27DBA, offset: 0x27DBA, size: 0x8, addend: 0x0, symName: __ZNSt3__117__compressed_pairINS_15__tree_end_nodeIPNS_16__tree_node_baseIPvEEEENS_9allocatorINS_11__tree_nodeINS_6vectorINS_12basic_stringIcNS_11char_traitsIcEENS7_IcEEEENS7_ISE_EEEES3_EEEEE6secondB8ue170006Ev, symObjAddr: 0x4E6F4, symBinAddr: 0x1000516E0, symSize: 0x24 }
  - { offsetInCU: 0x27DE0, offset: 0x27DE0, size: 0x8, addend: 0x0, symName: __ZNSt3__122__compressed_pair_elemINS_9allocatorINS_11__tree_nodeINS_6vectorINS_12basic_stringIcNS_11char_traitsIcEENS1_IcEEEENS1_IS8_EEEEPvEEEELi1ELb1EE5__getB8ue170006Ev, symObjAddr: 0x4E718, symBinAddr: 0x100051704, symSize: 0x14 }
  - { offsetInCU: 0x27E06, offset: 0x27E06, size: 0x8, addend: 0x0, symName: __ZNSt3__19allocatorINS_11__tree_nodeINS_6vectorINS_12basic_stringIcNS_11char_traitsIcEENS0_IcEEEENS0_IS7_EEEEPvEEE10deallocateB8ue170006EPSB_m, symObjAddr: 0x4E774, symBinAddr: 0x100051760, symSize: 0x50 }
  - { offsetInCU: 0x27E48, offset: 0x27E48, size: 0x8, addend: 0x0, symName: __ZN5CSortC2Ev, symObjAddr: 0x4E7C4, symBinAddr: 0x1000517B0, symSize: 0x2C }
  - { offsetInCU: 0x27E72, offset: 0x27E72, size: 0x8, addend: 0x0, symName: __ZNSt3__16vectorINS_4pairI8ESortKeybEENS_9allocatorIS3_EEEC1B8ue170006Ev, symObjAddr: 0x4E7F0, symBinAddr: 0x1000517DC, symSize: 0x2C }
  - { offsetInCU: 0x27E9C, offset: 0x27E9C, size: 0x8, addend: 0x0, symName: __ZNSt3__16vectorINS_4pairI8ESortKeybEENS_9allocatorIS3_EEEC2B8ue170006Ev, symObjAddr: 0x4E81C, symBinAddr: 0x100051808, symSize: 0x2E8 }
  - { offsetInCU: 0x27EC7, offset: 0x27EC7, size: 0x8, addend: 0x0, symName: __ZNSt3__117__compressed_pairIPNS_4pairI8ESortKeybEENS_9allocatorIS3_EEEC1B8ue170006IDnNS_18__default_init_tagEEEOT_OT0_, symObjAddr: 0x4EB04, symBinAddr: 0x100051AF0, symSize: 0x3C }
  - { offsetInCU: 0x27F1F, offset: 0x27F1F, size: 0x8, addend: 0x0, symName: __ZNSt3__117__compressed_pairIPNS_4pairI8ESortKeybEENS_9allocatorIS3_EEEC2B8ue170006IDnNS_18__default_init_tagEEEOT_OT0_, symObjAddr: 0x4EB40, symBinAddr: 0x100051B2C, symSize: 0x40 }
  - { offsetInCU: 0x27F77, offset: 0x27F77, size: 0x8, addend: 0x0, symName: __ZNSt3__122__compressed_pair_elemINS_9allocatorINS_4pairI8ESortKeybEEEELi1ELb1EEC2B8ue170006ENS_18__default_init_tagE, symObjAddr: 0x4EB80, symBinAddr: 0x100051B6C, symSize: 0x2C }
  - { offsetInCU: 0x27FAC, offset: 0x27FAC, size: 0x8, addend: 0x0, symName: __ZNSt3__19allocatorINS_4pairI8ESortKeybEEEC2B8ue170006Ev, symObjAddr: 0x4EBAC, symBinAddr: 0x100051B98, symSize: 0x2C }
  - { offsetInCU: 0x27FD6, offset: 0x27FD6, size: 0x8, addend: 0x0, symName: __ZNSt3__116__non_trivial_ifILb1ENS_9allocatorINS_4pairI8ESortKeybEEEEEC2B8ue170006Ev, symObjAddr: 0x4EBD8, symBinAddr: 0x100051BC4, symSize: 0x14 }
  - { offsetInCU: 0x28000, offset: 0x28000, size: 0x8, addend: 0x0, symName: __ZNSt3__14listI8CStudentNS_9allocatorIS1_EEED2Ev, symObjAddr: 0x4EBEC, symBinAddr: 0x100051BD8, symSize: 0x2C }
  - { offsetInCU: 0x2802D, offset: 0x2802D, size: 0x8, addend: 0x0, symName: __ZNSt3__110__list_impI8CStudentNS_9allocatorIS1_EEED2Ev, symObjAddr: 0x4EC18, symBinAddr: 0x100051C04, symSize: 0x2C }
  - { offsetInCU: 0x28059, offset: 0x28059, size: 0x8, addend: 0x0, symName: __ZNSt3__110__list_impI8CStudentNS_9allocatorIS1_EEE5clearEv, symObjAddr: 0x4EC44, symBinAddr: 0x100051C30, symSize: 0x1C8 }
  - { offsetInCU: 0x280C9, offset: 0x280C9, size: 0x8, addend: 0x0, symName: __ZNKSt3__110__list_impI8CStudentNS_9allocatorIS1_EEE5emptyB8ue170006Ev, symObjAddr: 0x4EE0C, symBinAddr: 0x100051DF8, symSize: 0x78 }
  - { offsetInCU: 0x280EF, offset: 0x280EF, size: 0x8, addend: 0x0, symName: __ZNSt3__116allocator_traitsINS_9allocatorINS_11__list_nodeI8CStudentPvEEEEE7destroyB8ue170006IS3_vvEEvRS6_PT_, symObjAddr: 0x4EE84, symBinAddr: 0x100051E70, symSize: 0x28 }
  - { offsetInCU: 0x28129, offset: 0x28129, size: 0x8, addend: 0x0, symName: __ZNKSt3__110__list_impI8CStudentNS_9allocatorIS1_EEE4__szB8ue170006Ev, symObjAddr: 0x4EEAC, symBinAddr: 0x100051E98, symSize: 0x28 }
  - { offsetInCU: 0x2814F, offset: 0x2814F, size: 0x8, addend: 0x0, symName: __ZNKSt3__117__compressed_pairImNS_9allocatorINS_11__list_nodeI8CStudentPvEEEEE5firstB8ue170006Ev, symObjAddr: 0x4EED4, symBinAddr: 0x100051EC0, symSize: 0x24 }
  - { offsetInCU: 0x28175, offset: 0x28175, size: 0x8, addend: 0x0, symName: __ZN5CSortD2Ev, symObjAddr: 0x4EF40, symBinAddr: 0x100051F2C, symSize: 0x2C }
  - { offsetInCU: 0x281A1, offset: 0x281A1, size: 0x8, addend: 0x0, symName: __ZN7CFilterD2Ev, symObjAddr: 0x4EF6C, symBinAddr: 0x100051F58, symSize: 0x2C }
  - { offsetInCU: 0x281CD, offset: 0x281CD, size: 0x8, addend: 0x0, symName: __ZNSt3__16vectorINS_4pairI8ESortKeybEENS_9allocatorIS3_EEE9push_backB8ue170006EOS3_, symObjAddr: 0x4EF98, symBinAddr: 0x100051F84, symSize: 0xE0 }
  - { offsetInCU: 0x2820A, offset: 0x2820A, size: 0x8, addend: 0x0, symName: __ZNSt3__14pairI8ESortKeybEC1B8ue170006IRS1_RbLPv0EEEOT_OT0_, symObjAddr: 0x4F078, symBinAddr: 0x100052064, symSize: 0x3C }
  - { offsetInCU: 0x28268, offset: 0x28268, size: 0x8, addend: 0x0, symName: __ZNSt3__16vectorINS_4pairI8ESortKeybEENS_9allocatorIS3_EEE22__construct_one_at_endB8ue170006IJS3_EEEvDpOT_, symObjAddr: 0x4F0B4, symBinAddr: 0x1000520A0, symSize: 0x36C }
  - { offsetInCU: 0x282BD, offset: 0x282BD, size: 0x8, addend: 0x0, symName: __ZNSt3__16vectorINS_4pairI8ESortKeybEENS_9allocatorIS3_EEE21__push_back_slow_pathIS3_EEvOT_, symObjAddr: 0x4F420, symBinAddr: 0x10005240C, symSize: 0x3C0 }
  - { offsetInCU: 0x28322, offset: 0x28322, size: 0x8, addend: 0x0, symName: __ZNSt3__116allocator_traitsINS_9allocatorINS_4pairI8ESortKeybEEEEE9constructB8ue170006IS4_JS4_EvvEEvRS5_PT_DpOT0_, symObjAddr: 0x4F7E0, symBinAddr: 0x1000527CC, symSize: 0x30 }
  - { offsetInCU: 0x28376, offset: 0x28376, size: 0x8, addend: 0x0, symName: __ZNKSt3__16vectorINS_4pairI8ESortKeybEENS_9allocatorIS3_EEE11__recommendB8ue170006Em, symObjAddr: 0x4F850, symBinAddr: 0x10005283C, symSize: 0x384 }
  - { offsetInCU: 0x283D2, offset: 0x283D2, size: 0x8, addend: 0x0, symName: __ZNSt3__114__split_bufferINS_4pairI8ESortKeybEERNS_9allocatorIS3_EEEC1EmmS6_, symObjAddr: 0x4FBD4, symBinAddr: 0x100052BC0, symSize: 0x44 }
  - { offsetInCU: 0x28428, offset: 0x28428, size: 0x8, addend: 0x0, symName: __ZNSt3__114__split_bufferINS_4pairI8ESortKeybEERNS_9allocatorIS3_EEED1Ev, symObjAddr: 0x50184, symBinAddr: 0x100053170, symSize: 0x2C }
  - { offsetInCU: 0x28454, offset: 0x28454, size: 0x8, addend: 0x0, symName: __ZNSt3__114__split_bufferINS_4pairI8ESortKeybEERNS_9allocatorIS3_EEEC2EmmS6_, symObjAddr: 0x501B0, symBinAddr: 0x10005319C, symSize: 0x520 }
  - { offsetInCU: 0x284CF, offset: 0x284CF, size: 0x8, addend: 0x0, symName: __ZNSt3__117__compressed_pairIPNS_4pairI8ESortKeybEERNS_9allocatorIS3_EEEC1B8ue170006IDnS7_EEOT_OT0_, symObjAddr: 0x506D0, symBinAddr: 0x1000536BC, symSize: 0x3C }
  - { offsetInCU: 0x28527, offset: 0x28527, size: 0x8, addend: 0x0, symName: __ZNSt3__114__split_bufferINS_4pairI8ESortKeybEERNS_9allocatorIS3_EEE7__allocB8ue170006Ev, symObjAddr: 0x5070C, symBinAddr: 0x1000536F8, symSize: 0x28 }
  - { offsetInCU: 0x2854D, offset: 0x2854D, size: 0x8, addend: 0x0, symName: __ZNSt3__114__split_bufferINS_4pairI8ESortKeybEERNS_9allocatorIS3_EEE9__end_capB8ue170006Ev, symObjAddr: 0x50734, symBinAddr: 0x100053720, symSize: 0x28 }
  - { offsetInCU: 0x28573, offset: 0x28573, size: 0x8, addend: 0x0, symName: __ZNSt3__117__compressed_pairIPNS_4pairI8ESortKeybEERNS_9allocatorIS3_EEEC2B8ue170006IDnS7_EEOT_OT0_, symObjAddr: 0x5075C, symBinAddr: 0x100053748, symSize: 0x48 }
  - { offsetInCU: 0x285CB, offset: 0x285CB, size: 0x8, addend: 0x0, symName: __ZNSt3__122__compressed_pair_elemIRNS_9allocatorINS_4pairI8ESortKeybEEEELi1ELb0EEC2B8ue170006IS6_vEEOT_, symObjAddr: 0x507A4, symBinAddr: 0x100053790, symSize: 0x70 }
  - { offsetInCU: 0x2860D, offset: 0x2860D, size: 0x8, addend: 0x0, symName: __ZNSt3__117__compressed_pairIPNS_4pairI8ESortKeybEERNS_9allocatorIS3_EEE6secondB8ue170006Ev, symObjAddr: 0x50814, symBinAddr: 0x100053800, symSize: 0x28 }
  - { offsetInCU: 0x28633, offset: 0x28633, size: 0x8, addend: 0x0, symName: __ZNSt3__122__compressed_pair_elemIRNS_9allocatorINS_4pairI8ESortKeybEEEELi1ELb0EE5__getB8ue170006Ev, symObjAddr: 0x5083C, symBinAddr: 0x100053828, symSize: 0x60 }
  - { offsetInCU: 0x28659, offset: 0x28659, size: 0x8, addend: 0x0, symName: __ZNSt3__117__compressed_pairIPNS_4pairI8ESortKeybEERNS_9allocatorIS3_EEE5firstB8ue170006Ev, symObjAddr: 0x5089C, symBinAddr: 0x100053888, symSize: 0x24 }
  - { offsetInCU: 0x2867F, offset: 0x2867F, size: 0x8, addend: 0x0, symName: __ZNSt3__129_AllocatorDestroyRangeReverseINS_9allocatorINS_4pairI8ESortKeybEEEENS_16reverse_iteratorIPS4_EEEC1B8ue170006ERS5_RS8_SB_, symObjAddr: 0x51128, symBinAddr: 0x100054114, symSize: 0x44 }
  - { offsetInCU: 0x286D6, offset: 0x286D6, size: 0x8, addend: 0x0, symName: __ZNKSt3__116reverse_iteratorIPNS_4pairI8ESortKeybEEEdeB8ue170006Ev, symObjAddr: 0x5116C, symBinAddr: 0x100054158, symSize: 0x74 }
  - { offsetInCU: 0x2870A, offset: 0x2870A, size: 0x8, addend: 0x0, symName: __ZNSt3__128__exception_guard_exceptionsINS_29_AllocatorDestroyRangeReverseINS_9allocatorINS_4pairI8ESortKeybEEEENS_16reverse_iteratorIPS5_EEEEE10__completeB8ue170006Ev, symObjAddr: 0x511E0, symBinAddr: 0x1000541CC, symSize: 0x8C }
  - { offsetInCU: 0x28730, offset: 0x28730, size: 0x8, addend: 0x0, symName: __ZNSt3__128__exception_guard_exceptionsINS_29_AllocatorDestroyRangeReverseINS_9allocatorINS_4pairI8ESortKeybEEEENS_16reverse_iteratorIPS5_EEEEED1B8ue170006Ev, symObjAddr: 0x5126C, symBinAddr: 0x100054258, symSize: 0x2C }
  - { offsetInCU: 0x2875A, offset: 0x2875A, size: 0x8, addend: 0x0, symName: __ZNSt3__128__exception_guard_exceptionsINS_29_AllocatorDestroyRangeReverseINS_9allocatorINS_4pairI8ESortKeybEEEENS_16reverse_iteratorIPS5_EEEEEC1B8ue170006ESA_, symObjAddr: 0x51298, symBinAddr: 0x100054284, symSize: 0x34 }
  - { offsetInCU: 0x28793, offset: 0x28793, size: 0x8, addend: 0x0, symName: __ZNSt3__128__exception_guard_exceptionsINS_29_AllocatorDestroyRangeReverseINS_9allocatorINS_4pairI8ESortKeybEEEENS_16reverse_iteratorIPS5_EEEEEC2B8ue170006ESA_, symObjAddr: 0x512CC, symBinAddr: 0x1000542B8, symSize: 0xA4 }
  - { offsetInCU: 0x287CC, offset: 0x287CC, size: 0x8, addend: 0x0, symName: __ZNSt3__129_AllocatorDestroyRangeReverseINS_9allocatorINS_4pairI8ESortKeybEEEENS_16reverse_iteratorIPS4_EEEC2B8ue170006ERS5_RS8_SB_, symObjAddr: 0x51370, symBinAddr: 0x10005435C, symSize: 0x104 }
  - { offsetInCU: 0x28823, offset: 0x28823, size: 0x8, addend: 0x0, symName: __ZNSt3__128__exception_guard_exceptionsINS_29_AllocatorDestroyRangeReverseINS_9allocatorINS_4pairI8ESortKeybEEEENS_16reverse_iteratorIPS5_EEEEED2B8ue170006Ev, symObjAddr: 0x51474, symBinAddr: 0x100054460, symSize: 0xBC }
  - { offsetInCU: 0x2884D, offset: 0x2884D, size: 0x8, addend: 0x0, symName: __ZNKSt3__129_AllocatorDestroyRangeReverseINS_9allocatorINS_4pairI8ESortKeybEEEENS_16reverse_iteratorIPS4_EEEclB8ue170006Ev, symObjAddr: 0x51530, symBinAddr: 0x10005451C, symSize: 0x3A8 }
  - { offsetInCU: 0x28874, offset: 0x28874, size: 0x8, addend: 0x0, symName: __ZNSt3__116reverse_iteratorINS0_IPNS_4pairI8ESortKeybEEEEEC1B8ue170006ES5_, symObjAddr: 0x51948, symBinAddr: 0x100054934, symSize: 0x248 }
  - { offsetInCU: 0x288B1, offset: 0x288B1, size: 0x8, addend: 0x0, symName: __ZNSt3__116reverse_iteratorINS0_IPNS_4pairI8ESortKeybEEEEEppB8ue170006Ev, symObjAddr: 0x51E80, symBinAddr: 0x100054E6C, symSize: 0x30 }
  - { offsetInCU: 0x288D7, offset: 0x288D7, size: 0x8, addend: 0x0, symName: __ZNKSt3__116reverse_iteratorINS0_IPNS_4pairI8ESortKeybEEEEE4baseB8ue170006Ev, symObjAddr: 0x51EB0, symBinAddr: 0x100054E9C, symSize: 0x20C }
  - { offsetInCU: 0x28904, offset: 0x28904, size: 0x8, addend: 0x0, symName: __ZNSt3__119__to_address_helperINS_16reverse_iteratorINS1_IPNS_4pairI8ESortKeybEEEEEEvE6__callB8ue170006ERKS7_, symObjAddr: 0x520BC, symBinAddr: 0x1000550A8, symSize: 0x44 }
  - { offsetInCU: 0x28927, offset: 0x28927, size: 0x8, addend: 0x0, symName: __ZNKSt3__116reverse_iteratorINS0_IPNS_4pairI8ESortKeybEEEEEptB8ue170006Ev, symObjAddr: 0x52100, symBinAddr: 0x1000550EC, symSize: 0x2A0 }
  - { offsetInCU: 0x2894E, offset: 0x2894E, size: 0x8, addend: 0x0, symName: __ZNSt3__116reverse_iteratorIPNS_4pairI8ESortKeybEEEpLB8ue170006El, symObjAddr: 0x52698, symBinAddr: 0x100055684, symSize: 0x84 }
  - { offsetInCU: 0x28982, offset: 0x28982, size: 0x8, addend: 0x0, symName: __ZNSt3__116reverse_iteratorIPNS_4pairI8ESortKeybEEEmmB8ue170006Ev, symObjAddr: 0x5271C, symBinAddr: 0x100055708, symSize: 0x6C }
  - { offsetInCU: 0x289A8, offset: 0x289A8, size: 0x8, addend: 0x0, symName: __ZNSt3__116reverse_iteratorINS0_IPNS_4pairI8ESortKeybEEEEEC2B8ue170006ES5_, symObjAddr: 0x52788, symBinAddr: 0x100055774, symSize: 0x22C }
  - { offsetInCU: 0x289E5, offset: 0x289E5, size: 0x8, addend: 0x0, symName: __ZNSt3__114__split_bufferINS_4pairI8ESortKeybEERNS_9allocatorIS3_EEED2Ev, symObjAddr: 0x529B4, symBinAddr: 0x1000559A0, symSize: 0x104 }
  - { offsetInCU: 0x28A11, offset: 0x28A11, size: 0x8, addend: 0x0, symName: __ZNSt3__114__split_bufferINS_4pairI8ESortKeybEERNS_9allocatorIS3_EEE5clearB8ue170006Ev, symObjAddr: 0x52AB8, symBinAddr: 0x100055AA4, symSize: 0x68 }
  - { offsetInCU: 0x28A37, offset: 0x28A37, size: 0x8, addend: 0x0, symName: __ZNKSt3__114__split_bufferINS_4pairI8ESortKeybEERNS_9allocatorIS3_EEE8capacityB8ue170006Ev, symObjAddr: 0x52B20, symBinAddr: 0x100055B0C, symSize: 0xBC }
  - { offsetInCU: 0x28A5D, offset: 0x28A5D, size: 0x8, addend: 0x0, symName: __ZNSt3__114__split_bufferINS_4pairI8ESortKeybEERNS_9allocatorIS3_EEE17__destruct_at_endB8ue170006EPS3_, symObjAddr: 0x52BDC, symBinAddr: 0x100055BC8, symSize: 0x2C }
  - { offsetInCU: 0x28A91, offset: 0x28A91, size: 0x8, addend: 0x0, symName: __ZNSt3__114__split_bufferINS_4pairI8ESortKeybEERNS_9allocatorIS3_EEE17__destruct_at_endB8ue170006EPS3_NS_17integral_constantIbLb0EEE, symObjAddr: 0x52C08, symBinAddr: 0x100055BF4, symSize: 0x10C }
  - { offsetInCU: 0x28AD2, offset: 0x28AD2, size: 0x8, addend: 0x0, symName: __ZNKSt3__114__split_bufferINS_4pairI8ESortKeybEERNS_9allocatorIS3_EEE9__end_capB8ue170006Ev, symObjAddr: 0x52D14, symBinAddr: 0x100055D00, symSize: 0x28 }
  - { offsetInCU: 0x28AF8, offset: 0x28AF8, size: 0x8, addend: 0x0, symName: __ZNKSt3__117__compressed_pairIPNS_4pairI8ESortKeybEERNS_9allocatorIS3_EEE5firstB8ue170006Ev, symObjAddr: 0x52D3C, symBinAddr: 0x100055D28, symSize: 0x24 }
  - { offsetInCU: 0x28B1E, offset: 0x28B1E, size: 0x8, addend: 0x0, symName: __ZNSt3__14pairI8ESortKeybEC2B8ue170006IRS1_RbLPv0EEEOT_OT0_, symObjAddr: 0x52D60, symBinAddr: 0x100055D4C, symSize: 0x1D8 }
  - { offsetInCU: 0x28B7C, offset: 0x28B7C, size: 0x8, addend: 0x0, symName: __ZNK7CFilter18splitNameIntoWordsERKNSt3__112basic_stringIcNS0_11char_traitsIcEENS0_9allocatorIcEEEERNS0_6vectorIS6_NS4_IS6_EEEE, symObjAddr: 0x52F38, symBinAddr: 0x100055F24, symSize: 0x538 }
  - { offsetInCU: 0x28C27, offset: 0x28C27, size: 0x8, addend: 0x0, symName: __ZNSt3__13setINS_6vectorINS_12basic_stringIcNS_11char_traitsIcEENS_9allocatorIcEEEENS5_IS7_EEEENS_4lessIS9_EENS5_IS9_EEE6insertB8ue170006ERKS9_, symObjAddr: 0x53470, symBinAddr: 0x10005645C, symSize: 0x2A8 }
  - { offsetInCU: 0x28C5E, offset: 0x28C5E, size: 0x8, addend: 0x0, symName: __ZNSt3__15arrayIbLm5EEixB8ue170006Em, symObjAddr: 0x53718, symBinAddr: 0x100056704, symSize: 0x20 }
  - { offsetInCU: 0x28C92, offset: 0x28C92, size: 0x8, addend: 0x0, symName: __ZNKSt3__112basic_stringIcNS_11char_traitsIcEENS_9allocatorIcEEE5beginB8ue170006Ev, symObjAddr: 0x53738, symBinAddr: 0x100056724, symSize: 0x258 }
  - { offsetInCU: 0x28CB9, offset: 0x28CB9, size: 0x8, addend: 0x0, symName: __ZNKSt3__112basic_stringIcNS_11char_traitsIcEENS_9allocatorIcEEE3endB8ue170006Ev, symObjAddr: 0x53990, symBinAddr: 0x10005697C, symSize: 0x25C }
  - { offsetInCU: 0x28CE0, offset: 0x28CE0, size: 0x8, addend: 0x0, symName: __ZNKSt3__111__wrap_iterIPKcEdeB8ue170006Ev, symObjAddr: 0x53C20, symBinAddr: 0x100056C0C, symSize: 0x60 }
  - { offsetInCU: 0x28D06, offset: 0x28D06, size: 0x8, addend: 0x0, symName: __ZNSt3__111__wrap_iterIPKcEppB8ue170006Ev, symObjAddr: 0x53C80, symBinAddr: 0x100056C6C, symSize: 0x68 }
  - { offsetInCU: 0x28D2C, offset: 0x28D2C, size: 0x8, addend: 0x0, symName: __ZNKSt3__112basic_stringIcNS_11char_traitsIcEENS_9allocatorIcEEE21__make_const_iteratorB8ue170006EPKc, symObjAddr: 0x53CE8, symBinAddr: 0x100056CD4, symSize: 0x1FC }
  - { offsetInCU: 0x28D63, offset: 0x28D63, size: 0x8, addend: 0x0, symName: __ZNSt3__111__wrap_iterIPKcEC1B8ue170006ES2_, symObjAddr: 0x53EE4, symBinAddr: 0x100056ED0, symSize: 0x34 }
  - { offsetInCU: 0x28D9B, offset: 0x28D9B, size: 0x8, addend: 0x0, symName: __ZNSt3__111__wrap_iterIPKcEC2B8ue170006ES2_, symObjAddr: 0x53F18, symBinAddr: 0x100056F04, symSize: 0x70 }
  - { offsetInCU: 0x28DD3, offset: 0x28DD3, size: 0x8, addend: 0x0, symName: __ZNKSt3__111__wrap_iterIPKcE4baseB8ue170006Ev, symObjAddr: 0x53FD0, symBinAddr: 0x100056FBC, symSize: 0x60 }
  - { offsetInCU: 0x28DF9, offset: 0x28DF9, size: 0x8, addend: 0x0, symName: __ZNSt3__16__treeINS_6vectorINS_12basic_stringIcNS_11char_traitsIcEENS_9allocatorIcEEEENS5_IS7_EEEENS_4lessIS9_EENS5_IS9_EEE15__insert_uniqueB8ue170006ERKS9_, symObjAddr: 0x54030, symBinAddr: 0x10005701C, symSize: 0x238 }
  - { offsetInCU: 0x28E30, offset: 0x28E30, size: 0x8, addend: 0x0, symName: __ZNSt3__14pairINS_21__tree_const_iteratorINS_6vectorINS_12basic_stringIcNS_11char_traitsIcEENS_9allocatorIcEEEENS6_IS8_EEEEPNS_11__tree_nodeISA_PvEElEEbEC1B8ue170006INS_15__tree_iteratorISA_SE_lEEbLSC_0EEEONS0_IT_T0_EE, symObjAddr: 0x54268, symBinAddr: 0x100057254, symSize: 0x34 }
  - { offsetInCU: 0x28E81, offset: 0x28E81, size: 0x8, addend: 0x0, symName: __ZNSt3__16__treeINS_6vectorINS_12basic_stringIcNS_11char_traitsIcEENS_9allocatorIcEEEENS5_IS7_EEEENS_4lessIS9_EENS5_IS9_EEE25__emplace_unique_key_argsIS9_JRKS9_EEENS_4pairINS_15__tree_iteratorIS9_PNS_11__tree_nodeIS9_PvEElEEbEERKT_DpOT0_, symObjAddr: 0x5429C, symBinAddr: 0x100057288, symSize: 0x510 }
  - { offsetInCU: 0x28F3D, offset: 0x28F3D, size: 0x8, addend: 0x0, symName: __ZNSt3__122__tree_key_value_typesINS_6vectorINS_12basic_stringIcNS_11char_traitsIcEENS_9allocatorIcEEEENS5_IS7_EEEEE9__get_keyB8ue170006ERKS9_, symObjAddr: 0x547AC, symBinAddr: 0x100057798, symSize: 0x14 }
  - { offsetInCU: 0x28F61, offset: 0x28F61, size: 0x8, addend: 0x0, symName: __ZNSt3__16__treeINS_6vectorINS_12basic_stringIcNS_11char_traitsIcEENS_9allocatorIcEEEENS5_IS7_EEEENS_4lessIS9_EENS5_IS9_EEE12__find_equalIS9_EERPNS_16__tree_node_baseIPvEERPNS_15__tree_end_nodeISI_EERKT_, symObjAddr: 0x547C0, symBinAddr: 0x1000577AC, symSize: 0x3F0 }
  - { offsetInCU: 0x28FCE, offset: 0x28FCE, size: 0x8, addend: 0x0, symName: __ZNSt3__16__treeINS_6vectorINS_12basic_stringIcNS_11char_traitsIcEENS_9allocatorIcEEEENS5_IS7_EEEENS_4lessIS9_EENS5_IS9_EEE16__construct_nodeIJRKS9_EEENS_10unique_ptrINS_11__tree_nodeIS9_PvEENS_22__tree_node_destructorINS5_ISK_EEEEEEDpOT_, symObjAddr: 0x54BB0, symBinAddr: 0x100057B9C, symSize: 0x37C }
  - { offsetInCU: 0x29033, offset: 0x29033, size: 0x8, addend: 0x0, symName: __ZNSt3__16__treeINS_6vectorINS_12basic_stringIcNS_11char_traitsIcEENS_9allocatorIcEEEENS5_IS7_EEEENS_4lessIS9_EENS5_IS9_EEE16__insert_node_atEPNS_15__tree_end_nodeIPNS_16__tree_node_baseIPvEEEERSI_SI_, symObjAddr: 0x54F2C, symBinAddr: 0x100057F18, symSize: 0x370 }
  - { offsetInCU: 0x29088, offset: 0x29088, size: 0x8, addend: 0x0, symName: __ZNKSt3__110unique_ptrINS_11__tree_nodeINS_6vectorINS_12basic_stringIcNS_11char_traitsIcEENS_9allocatorIcEEEENS6_IS8_EEEEPvEENS_22__tree_node_destructorINS6_ISC_EEEEE3getB8ue170006Ev, symObjAddr: 0x5529C, symBinAddr: 0x100058288, symSize: 0x6C }
  - { offsetInCU: 0x290AE, offset: 0x290AE, size: 0x8, addend: 0x0, symName: __ZNSt3__110unique_ptrINS_11__tree_nodeINS_6vectorINS_12basic_stringIcNS_11char_traitsIcEENS_9allocatorIcEEEENS6_IS8_EEEEPvEENS_22__tree_node_destructorINS6_ISC_EEEEE7releaseB8ue170006Ev, symObjAddr: 0x55308, symBinAddr: 0x1000582F4, symSize: 0xB8 }
  - { offsetInCU: 0x290E3, offset: 0x290E3, size: 0x8, addend: 0x0, symName: __ZNSt3__110unique_ptrINS_11__tree_nodeINS_6vectorINS_12basic_stringIcNS_11char_traitsIcEENS_9allocatorIcEEEENS6_IS8_EEEEPvEENS_22__tree_node_destructorINS6_ISC_EEEEED1B8ue170006Ev, symObjAddr: 0x553C0, symBinAddr: 0x1000583AC, symSize: 0x2C }
  - { offsetInCU: 0x2910D, offset: 0x2910D, size: 0x8, addend: 0x0, symName: __ZNSt3__115__tree_iteratorINS_6vectorINS_12basic_stringIcNS_11char_traitsIcEENS_9allocatorIcEEEENS5_IS7_EEEEPNS_11__tree_nodeIS9_PvEElEC1B8ue170006ESD_, symObjAddr: 0x553EC, symBinAddr: 0x1000583D8, symSize: 0x34 }
  - { offsetInCU: 0x2914C, offset: 0x2914C, size: 0x8, addend: 0x0, symName: __ZNSt3__14pairINS_15__tree_iteratorINS_6vectorINS_12basic_stringIcNS_11char_traitsIcEENS_9allocatorIcEEEENS6_IS8_EEEEPNS_11__tree_nodeISA_PvEElEEbEC1B8ue170006ISF_RbLSC_0EEEOT_OT0_, symObjAddr: 0x55420, symBinAddr: 0x10005840C, symSize: 0x3C }
  - { offsetInCU: 0x291AA, offset: 0x291AA, size: 0x8, addend: 0x0, symName: __ZNKSt3__16__treeINS_6vectorINS_12basic_stringIcNS_11char_traitsIcEENS_9allocatorIcEEEENS5_IS7_EEEENS_4lessIS9_EENS5_IS9_EEE10__root_ptrB8ue170006Ev, symObjAddr: 0x5545C, symBinAddr: 0x100058448, symSize: 0x24 }
  - { offsetInCU: 0x291D0, offset: 0x291D0, size: 0x8, addend: 0x0, symName: __ZNSt3__16__treeINS_6vectorINS_12basic_stringIcNS_11char_traitsIcEENS_9allocatorIcEEEENS5_IS7_EEEENS_4lessIS9_EENS5_IS9_EEE10value_compB8ue170006Ev, symObjAddr: 0x55480, symBinAddr: 0x10005846C, symSize: 0x28 }
  - { offsetInCU: 0x291F6, offset: 0x291F6, size: 0x8, addend: 0x0, symName: __ZNSt3__117__compressed_pairImNS_4lessINS_6vectorINS_12basic_stringIcNS_11char_traitsIcEENS_9allocatorIcEEEENS6_IS8_EEEEEEE6secondB8ue170006Ev, symObjAddr: 0x554A8, symBinAddr: 0x100058494, symSize: 0x24 }
  - { offsetInCU: 0x2921C, offset: 0x2921C, size: 0x8, addend: 0x0, symName: __ZNSt3__122__compressed_pair_elemINS_4lessINS_6vectorINS_12basic_stringIcNS_11char_traitsIcEENS_9allocatorIcEEEENS6_IS8_EEEEEELi1ELb1EE5__getB8ue170006Ev, symObjAddr: 0x554CC, symBinAddr: 0x1000584B8, symSize: 0x14 }
  - { offsetInCU: 0x29242, offset: 0x29242, size: 0x8, addend: 0x0, symName: __ZNSt3__116allocator_traitsINS_9allocatorINS_11__tree_nodeINS_6vectorINS_12basic_stringIcNS_11char_traitsIcEENS1_IcEEEENS1_IS8_EEEEPvEEEEE8allocateB8ue170006ERSD_m, symObjAddr: 0x554E0, symBinAddr: 0x1000584CC, symSize: 0x2C }
  - { offsetInCU: 0x29275, offset: 0x29275, size: 0x8, addend: 0x0, symName: __ZNSt3__122__tree_node_destructorINS_9allocatorINS_11__tree_nodeINS_6vectorINS_12basic_stringIcNS_11char_traitsIcEENS1_IcEEEENS1_IS8_EEEEPvEEEEEC1B8ue170006ERSD_b, symObjAddr: 0x5550C, symBinAddr: 0x1000584F8, symSize: 0x48 }
  - { offsetInCU: 0x292C3, offset: 0x292C3, size: 0x8, addend: 0x0, symName: __ZNSt3__110unique_ptrINS_11__tree_nodeINS_6vectorINS_12basic_stringIcNS_11char_traitsIcEENS_9allocatorIcEEEENS6_IS8_EEEEPvEENS_22__tree_node_destructorINS6_ISC_EEEEEC1B8ue170006ILb1EvEEPSC_NS_16__dependent_typeINS_27__unique_ptr_deleter_sfinaeISF_EEXT_EE20__good_rval_ref_typeE, symObjAddr: 0x55554, symBinAddr: 0x100058540, symSize: 0x3C }
  - { offsetInCU: 0x29314, offset: 0x29314, size: 0x8, addend: 0x0, symName: __ZNSt3__116allocator_traitsINS_9allocatorINS_11__tree_nodeINS_6vectorINS_12basic_stringIcNS_11char_traitsIcEENS1_IcEEEENS1_IS8_EEEEPvEEEEE9constructB8ue170006ISA_JRKSA_EvvEEvRSD_PT_DpOT0_, symObjAddr: 0x55590, symBinAddr: 0x10005857C, symSize: 0x30 }
  - { offsetInCU: 0x29368, offset: 0x29368, size: 0x8, addend: 0x0, symName: __ZNKSt3__110unique_ptrINS_11__tree_nodeINS_6vectorINS_12basic_stringIcNS_11char_traitsIcEENS_9allocatorIcEEEENS6_IS8_EEEEPvEENS_22__tree_node_destructorINS6_ISC_EEEEEptB8ue170006Ev, symObjAddr: 0x555C0, symBinAddr: 0x1000585AC, symSize: 0x6C }
  - { offsetInCU: 0x2938E, offset: 0x2938E, size: 0x8, addend: 0x0, symName: __ZNSt3__110unique_ptrINS_11__tree_nodeINS_6vectorINS_12basic_stringIcNS_11char_traitsIcEENS_9allocatorIcEEEENS6_IS8_EEEEPvEENS_22__tree_node_destructorINS6_ISC_EEEEE11get_deleterB8ue170006Ev, symObjAddr: 0x5562C, symBinAddr: 0x100058618, symSize: 0x24 }
  - { offsetInCU: 0x293B4, offset: 0x293B4, size: 0x8, addend: 0x0, symName: __ZNSt3__19allocatorINS_11__tree_nodeINS_6vectorINS_12basic_stringIcNS_11char_traitsIcEENS0_IcEEEENS0_IS7_EEEEPvEEE8allocateB8ue170006Em, symObjAddr: 0x55650, symBinAddr: 0x10005863C, symSize: 0x60 }
  - { offsetInCU: 0x293F3, offset: 0x293F3, size: 0x8, addend: 0x0, symName: __ZNSt3__116allocator_traitsINS_9allocatorINS_11__tree_nodeINS_6vectorINS_12basic_stringIcNS_11char_traitsIcEENS1_IcEEEENS1_IS8_EEEEPvEEEEE8max_sizeB8ue170006ISD_vvEEmRKSD_, symObjAddr: 0x556B0, symBinAddr: 0x10005869C, symSize: 0x28 }
  - { offsetInCU: 0x2941E, offset: 0x2941E, size: 0x8, addend: 0x0, symName: __ZNSt3__122__tree_node_destructorINS_9allocatorINS_11__tree_nodeINS_6vectorINS_12basic_stringIcNS_11char_traitsIcEENS1_IcEEEENS1_IS8_EEEEPvEEEEEC2B8ue170006ERSD_b, symObjAddr: 0x556D8, symBinAddr: 0x1000586C4, symSize: 0xF0 }
  - { offsetInCU: 0x29466, offset: 0x29466, size: 0x8, addend: 0x0, symName: __ZNSt3__110unique_ptrINS_11__tree_nodeINS_6vectorINS_12basic_stringIcNS_11char_traitsIcEENS_9allocatorIcEEEENS6_IS8_EEEEPvEENS_22__tree_node_destructorINS6_ISC_EEEEEC2B8ue170006ILb1EvEEPSC_NS_16__dependent_typeINS_27__unique_ptr_deleter_sfinaeISF_EEXT_EE20__good_rval_ref_typeE, symObjAddr: 0x557C8, symBinAddr: 0x1000587B4, symSize: 0x21C }
  - { offsetInCU: 0x294BD, offset: 0x294BD, size: 0x8, addend: 0x0, symName: __ZNSt3__117__compressed_pairIPNS_11__tree_nodeINS_6vectorINS_12basic_stringIcNS_11char_traitsIcEENS_9allocatorIcEEEENS6_IS8_EEEEPvEENS_22__tree_node_destructorINS6_ISC_EEEEEC1B8ue170006IRSD_SG_EEOT_OT0_, symObjAddr: 0x559E4, symBinAddr: 0x1000589D0, symSize: 0x3C }
  - { offsetInCU: 0x29515, offset: 0x29515, size: 0x8, addend: 0x0, symName: __ZNSt3__117__compressed_pairIPNS_11__tree_nodeINS_6vectorINS_12basic_stringIcNS_11char_traitsIcEENS_9allocatorIcEEEENS6_IS8_EEEEPvEENS_22__tree_node_destructorINS6_ISC_EEEEEC2B8ue170006IRSD_SG_EEOT_OT0_, symObjAddr: 0x55A20, symBinAddr: 0x100058A0C, symSize: 0x48 }
  - { offsetInCU: 0x2956D, offset: 0x2956D, size: 0x8, addend: 0x0, symName: __ZNSt3__122__compressed_pair_elemIPNS_11__tree_nodeINS_6vectorINS_12basic_stringIcNS_11char_traitsIcEENS_9allocatorIcEEEENS6_IS8_EEEEPvEELi0ELb0EEC2B8ue170006IRSD_vEEOT_, symObjAddr: 0x55A68, symBinAddr: 0x100058A54, symSize: 0xB0 }
  - { offsetInCU: 0x295AF, offset: 0x295AF, size: 0x8, addend: 0x0, symName: __ZNSt3__122__compressed_pair_elemINS_22__tree_node_destructorINS_9allocatorINS_11__tree_nodeINS_6vectorINS_12basic_stringIcNS_11char_traitsIcEENS2_IcEEEENS2_IS9_EEEEPvEEEEEELi1ELb0EEC2B8ue170006ISF_vEEOT_, symObjAddr: 0x55B18, symBinAddr: 0x100058B04, symSize: 0x38 }
  - { offsetInCU: 0x295F1, offset: 0x295F1, size: 0x8, addend: 0x0, symName: __ZNKSt3__117__compressed_pairIPNS_11__tree_nodeINS_6vectorINS_12basic_stringIcNS_11char_traitsIcEENS_9allocatorIcEEEENS6_IS8_EEEEPvEENS_22__tree_node_destructorINS6_ISC_EEEEE5firstB8ue170006Ev, symObjAddr: 0x55B8C, symBinAddr: 0x100058B78, symSize: 0x24 }
  - { offsetInCU: 0x29617, offset: 0x29617, size: 0x8, addend: 0x0, symName: __ZNKSt3__122__compressed_pair_elemIPNS_11__tree_nodeINS_6vectorINS_12basic_stringIcNS_11char_traitsIcEENS_9allocatorIcEEEENS6_IS8_EEEEPvEELi0ELb0EE5__getB8ue170006Ev, symObjAddr: 0x55BB0, symBinAddr: 0x100058B9C, symSize: 0x14 }
  - { offsetInCU: 0x2963D, offset: 0x2963D, size: 0x8, addend: 0x0, symName: __ZNSt3__117__compressed_pairIPNS_11__tree_nodeINS_6vectorINS_12basic_stringIcNS_11char_traitsIcEENS_9allocatorIcEEEENS6_IS8_EEEEPvEENS_22__tree_node_destructorINS6_ISC_EEEEE6secondB8ue170006Ev, symObjAddr: 0x55BC4, symBinAddr: 0x100058BB0, symSize: 0x28 }
  - { offsetInCU: 0x29663, offset: 0x29663, size: 0x8, addend: 0x0, symName: __ZNSt3__122__compressed_pair_elemINS_22__tree_node_destructorINS_9allocatorINS_11__tree_nodeINS_6vectorINS_12basic_stringIcNS_11char_traitsIcEENS2_IcEEEENS2_IS9_EEEEPvEEEEEELi1ELb0EE5__getB8ue170006Ev, symObjAddr: 0x55BEC, symBinAddr: 0x100058BD8, symSize: 0x14 }
  - { offsetInCU: 0x29689, offset: 0x29689, size: 0x8, addend: 0x0, symName: __ZNSt3__16__treeINS_6vectorINS_12basic_stringIcNS_11char_traitsIcEENS_9allocatorIcEEEENS5_IS7_EEEENS_4lessIS9_EENS5_IS9_EEE4sizeB8ue170006Ev, symObjAddr: 0x55C00, symBinAddr: 0x100058BEC, symSize: 0x28 }
  - { offsetInCU: 0x296AF, offset: 0x296AF, size: 0x8, addend: 0x0, symName: __ZNSt3__117__compressed_pairImNS_4lessINS_6vectorINS_12basic_stringIcNS_11char_traitsIcEENS_9allocatorIcEEEENS6_IS8_EEEEEEE5firstB8ue170006Ev, symObjAddr: 0x55C28, symBinAddr: 0x100058C14, symSize: 0x24 }
  - { offsetInCU: 0x296D5, offset: 0x296D5, size: 0x8, addend: 0x0, symName: __ZNSt3__117__compressed_pairIPNS_11__tree_nodeINS_6vectorINS_12basic_stringIcNS_11char_traitsIcEENS_9allocatorIcEEEENS6_IS8_EEEEPvEENS_22__tree_node_destructorINS6_ISC_EEEEE5firstB8ue170006Ev, symObjAddr: 0x55C4C, symBinAddr: 0x100058C38, symSize: 0x24 }
  - { offsetInCU: 0x296FB, offset: 0x296FB, size: 0x8, addend: 0x0, symName: __ZNSt3__122__compressed_pair_elemIPNS_11__tree_nodeINS_6vectorINS_12basic_stringIcNS_11char_traitsIcEENS_9allocatorIcEEEENS6_IS8_EEEEPvEELi0ELb0EE5__getB8ue170006Ev, symObjAddr: 0x55C70, symBinAddr: 0x100058C5C, symSize: 0x14 }
  - { offsetInCU: 0x29721, offset: 0x29721, size: 0x8, addend: 0x0, symName: __ZNSt3__110unique_ptrINS_11__tree_nodeINS_6vectorINS_12basic_stringIcNS_11char_traitsIcEENS_9allocatorIcEEEENS6_IS8_EEEEPvEENS_22__tree_node_destructorINS6_ISC_EEEEED2B8ue170006Ev, symObjAddr: 0x55C84, symBinAddr: 0x100058C70, symSize: 0x30 }
  - { offsetInCU: 0x2974B, offset: 0x2974B, size: 0x8, addend: 0x0, symName: __ZNSt3__110unique_ptrINS_11__tree_nodeINS_6vectorINS_12basic_stringIcNS_11char_traitsIcEENS_9allocatorIcEEEENS6_IS8_EEEEPvEENS_22__tree_node_destructorINS6_ISC_EEEEE5resetB8ue170006EPSC_, symObjAddr: 0x55CB4, symBinAddr: 0x100058CA0, symSize: 0xEC }
  - { offsetInCU: 0x2978F, offset: 0x2978F, size: 0x8, addend: 0x0, symName: __ZNSt3__122__tree_node_destructorINS_9allocatorINS_11__tree_nodeINS_6vectorINS_12basic_stringIcNS_11char_traitsIcEENS1_IcEEEENS1_IS8_EEEEPvEEEEEclB8ue170006EPSC_, symObjAddr: 0x55DA0, symBinAddr: 0x100058D8C, symSize: 0x160 }
  - { offsetInCU: 0x297C4, offset: 0x297C4, size: 0x8, addend: 0x0, symName: __ZNSt3__115__tree_iteratorINS_6vectorINS_12basic_stringIcNS_11char_traitsIcEENS_9allocatorIcEEEENS5_IS7_EEEEPNS_11__tree_nodeIS9_PvEElEC2B8ue170006ESD_, symObjAddr: 0x55F00, symBinAddr: 0x100058EEC, symSize: 0x70 }
  - { offsetInCU: 0x297FD, offset: 0x297FD, size: 0x8, addend: 0x0, symName: __ZNSt3__14pairINS_15__tree_iteratorINS_6vectorINS_12basic_stringIcNS_11char_traitsIcEENS_9allocatorIcEEEENS6_IS8_EEEEPNS_11__tree_nodeISA_PvEElEEbEC2B8ue170006ISF_RbLSC_0EEEOT_OT0_, symObjAddr: 0x55F70, symBinAddr: 0x100058F5C, symSize: 0x120 }
  - { offsetInCU: 0x2985B, offset: 0x2985B, size: 0x8, addend: 0x0, symName: __ZNSt3__14pairINS_21__tree_const_iteratorINS_6vectorINS_12basic_stringIcNS_11char_traitsIcEENS_9allocatorIcEEEENS6_IS8_EEEEPNS_11__tree_nodeISA_PvEElEEbEC2B8ue170006INS_15__tree_iteratorISA_SE_lEEbLSC_0EEEONS0_IT_T0_EE, symObjAddr: 0x56090, symBinAddr: 0x10005907C, symSize: 0x2E8 }
  - { offsetInCU: 0x298AE, offset: 0x298AE, size: 0x8, addend: 0x0, symName: __ZNSt3__121__tree_const_iteratorINS_6vectorINS_12basic_stringIcNS_11char_traitsIcEENS_9allocatorIcEEEENS5_IS7_EEEEPNS_11__tree_nodeIS9_PvEElEC1B8ue170006ENS_15__tree_iteratorIS9_SD_lEE, symObjAddr: 0x56378, symBinAddr: 0x100059364, symSize: 0x238 }
  - { offsetInCU: 0x298EC, offset: 0x298EC, size: 0x8, addend: 0x0, symName: __ZNSt3__121__tree_const_iteratorINS_6vectorINS_12basic_stringIcNS_11char_traitsIcEENS_9allocatorIcEEEENS5_IS7_EEEEPNS_11__tree_nodeIS9_PvEElEC2B8ue170006ENS_15__tree_iteratorIS9_SD_lEE, symObjAddr: 0x565B0, symBinAddr: 0x10005959C, symSize: 0x270 }
  - { offsetInCU: 0x2992A, offset: 0x2992A, size: 0x8, addend: 0x0, symName: __ZNK10CStudyDept18splitNameIntoWordsERKNSt3__112basic_stringIcNS0_11char_traitsIcEENS0_9allocatorIcEEEERNS0_6vectorIS6_NS4_IS6_EEEE, symObjAddr: 0x56820, symBinAddr: 0x10005980C, symSize: 0x538 }
  - { offsetInCU: 0x299D9, offset: 0x299D9, size: 0x8, addend: 0x0, symName: __ZNKSt3__16vectorINS_12basic_stringIcNS_11char_traitsIcEENS_9allocatorIcEEEENS4_IS6_EEE5emptyB8ue170006Ev, symObjAddr: 0x56D58, symBinAddr: 0x100059D44, symSize: 0xB0 }
  - { offsetInCU: 0x299FF, offset: 0x299FF, size: 0x8, addend: 0x0, symName: __ZNKSt3__111__wrap_iterIPNS_12basic_stringIcNS_11char_traitsIcEENS_9allocatorIcEEEEEdeB8ue170006Ev, symObjAddr: 0x56E3C, symBinAddr: 0x100059E28, symSize: 0x60 }
  - { offsetInCU: 0x29A25, offset: 0x29A25, size: 0x8, addend: 0x0, symName: __ZNK8CStudent16passesNameFilterERKNSt3__112basic_stringIcNS0_11char_traitsIcEENS0_9allocatorIcEEEE, symObjAddr: 0x56E9C, symBinAddr: 0x100059E88, symSize: 0x34 }
  - { offsetInCU: 0x29A59, offset: 0x29A59, size: 0x8, addend: 0x0, symName: __ZNSt3__111__wrap_iterIPNS_12basic_stringIcNS_11char_traitsIcEENS_9allocatorIcEEEEEppB8ue170006Ev, symObjAddr: 0x56ED0, symBinAddr: 0x100059EBC, symSize: 0x68 }
  - { offsetInCU: 0x29A7F, offset: 0x29A7F, size: 0x8, addend: 0x0, symName: __ZNSt3__13setINS_12basic_stringIcNS_11char_traitsIcEENS_9allocatorIcEEEENS_4lessIS6_EENS4_IS6_EEE6insertB8ue170006EOS6_, symObjAddr: 0x56F38, symBinAddr: 0x100059F24, symSize: 0x2A8 }
  - { offsetInCU: 0x29AB6, offset: 0x29AB6, size: 0x8, addend: 0x0, symName: __ZNKSt3__18multisetINS_12basic_stringIcNS_11char_traitsIcEENS_9allocatorIcEEEENS_4lessIS6_EENS4_IS6_EEE8containsB8ue170006ERKS6_, symObjAddr: 0x57228, symBinAddr: 0x10005A214, symSize: 0x2BC }
  - { offsetInCU: 0x29AED, offset: 0x29AED, size: 0x8, addend: 0x0, symName: __ZNKSt3__18multisetINS_12basic_stringIcNS_11char_traitsIcEENS_9allocatorIcEEEENS_4lessIS6_EENS4_IS6_EEE4findB8ue170006ERKS6_, symObjAddr: 0x574E4, symBinAddr: 0x10005A4D0, symSize: 0x23C }
  - { offsetInCU: 0x29B24, offset: 0x29B24, size: 0x8, addend: 0x0, symName: __ZNKSt3__16__treeINS_12basic_stringIcNS_11char_traitsIcEENS_9allocatorIcEEEENS_4lessIS6_EENS4_IS6_EEE4findIS6_EENS_21__tree_const_iteratorIS6_PNS_11__tree_nodeIS6_PvEElEERKT_, symObjAddr: 0x57720, symBinAddr: 0x10005A70C, symSize: 0x3FC }
  - { offsetInCU: 0x29B79, offset: 0x29B79, size: 0x8, addend: 0x0, symName: __ZNKSt3__16__treeINS_12basic_stringIcNS_11char_traitsIcEENS_9allocatorIcEEEENS_4lessIS6_EENS4_IS6_EEE13__lower_boundIS6_EENS_21__tree_const_iteratorIS6_PNS_11__tree_nodeIS6_PvEElEERKT_SG_PNS_15__tree_end_nodeIPNS_16__tree_node_baseISE_EEEE, symObjAddr: 0x57B1C, symBinAddr: 0x10005AB08, symSize: 0x2E0 }
  - { offsetInCU: 0x29BDB, offset: 0x29BDB, size: 0x8, addend: 0x0, symName: __ZNSt3__16__treeINS_12basic_stringIcNS_11char_traitsIcEENS_9allocatorIcEEEENS_4lessIS6_EENS4_IS6_EEE15__insert_uniqueB8ue170006EOS6_, symObjAddr: 0x57DFC, symBinAddr: 0x10005ADE8, symSize: 0x238 }
  - { offsetInCU: 0x29C12, offset: 0x29C12, size: 0x8, addend: 0x0, symName: __ZNSt3__14pairINS_21__tree_const_iteratorINS_12basic_stringIcNS_11char_traitsIcEENS_9allocatorIcEEEEPNS_11__tree_nodeIS7_PvEElEEbEC1B8ue170006INS_15__tree_iteratorIS7_SB_lEEbLS9_0EEEONS0_IT_T0_EE, symObjAddr: 0x58034, symBinAddr: 0x10005B020, symSize: 0x34 }
  - { offsetInCU: 0x29C63, offset: 0x29C63, size: 0x8, addend: 0x0, symName: __ZNSt3__16__treeINS_12basic_stringIcNS_11char_traitsIcEENS_9allocatorIcEEEENS_4lessIS6_EENS4_IS6_EEE25__emplace_unique_key_argsIS6_JS6_EEENS_4pairINS_15__tree_iteratorIS6_PNS_11__tree_nodeIS6_PvEElEEbEERKT_DpOT0_, symObjAddr: 0x58068, symBinAddr: 0x10005B054, symSize: 0x510 }
  - { offsetInCU: 0x29D1F, offset: 0x29D1F, size: 0x8, addend: 0x0, symName: __ZNSt3__16__treeINS_12basic_stringIcNS_11char_traitsIcEENS_9allocatorIcEEEENS_4lessIS6_EENS4_IS6_EEE12__find_equalIS6_EERPNS_16__tree_node_baseIPvEERPNS_15__tree_end_nodeISF_EERKT_, symObjAddr: 0x58578, symBinAddr: 0x10005B564, symSize: 0x3F0 }
  - { offsetInCU: 0x29D8C, offset: 0x29D8C, size: 0x8, addend: 0x0, symName: __ZNSt3__16__treeINS_12basic_stringIcNS_11char_traitsIcEENS_9allocatorIcEEEENS_4lessIS6_EENS4_IS6_EEE16__construct_nodeIJS6_EEENS_10unique_ptrINS_11__tree_nodeIS6_PvEENS_22__tree_node_destructorINS4_ISF_EEEEEEDpOT_, symObjAddr: 0x58968, symBinAddr: 0x10005B954, symSize: 0x37C }
  - { offsetInCU: 0x29DF7, offset: 0x29DF7, size: 0x8, addend: 0x0, symName: __ZNSt3__14pairINS_15__tree_iteratorINS_12basic_stringIcNS_11char_traitsIcEENS_9allocatorIcEEEEPNS_11__tree_nodeIS7_PvEElEEbEC1B8ue170006ISC_RbLS9_0EEEOT_OT0_, symObjAddr: 0x58CE4, symBinAddr: 0x10005BCD0, symSize: 0x3C }
  - { offsetInCU: 0x29E55, offset: 0x29E55, size: 0x8, addend: 0x0, symName: __ZNKSt3__16__treeINS_12basic_stringIcNS_11char_traitsIcEENS_9allocatorIcEEEENS_4lessIS6_EENS4_IS6_EEE10__root_ptrB8ue170006Ev, symObjAddr: 0x58D20, symBinAddr: 0x10005BD0C, symSize: 0x24 }
  - { offsetInCU: 0x29E7B, offset: 0x29E7B, size: 0x8, addend: 0x0, symName: __ZNSt3__116allocator_traitsINS_9allocatorINS_11__tree_nodeINS_12basic_stringIcNS_11char_traitsIcEENS1_IcEEEEPvEEEEE9constructB8ue170006IS7_JS7_EvvEEvRSA_PT_DpOT0_, symObjAddr: 0x58D44, symBinAddr: 0x10005BD30, symSize: 0x30 }
  - { offsetInCU: 0x29ECF, offset: 0x29ECF, size: 0x8, addend: 0x0, symName: __ZNSt3__14pairINS_15__tree_iteratorINS_12basic_stringIcNS_11char_traitsIcEENS_9allocatorIcEEEEPNS_11__tree_nodeIS7_PvEElEEbEC2B8ue170006ISC_RbLS9_0EEEOT_OT0_, symObjAddr: 0x58D74, symBinAddr: 0x10005BD60, symSize: 0x120 }
  - { offsetInCU: 0x29F2D, offset: 0x29F2D, size: 0x8, addend: 0x0, symName: __ZNSt3__14pairINS_21__tree_const_iteratorINS_12basic_stringIcNS_11char_traitsIcEENS_9allocatorIcEEEEPNS_11__tree_nodeIS7_PvEElEEbEC2B8ue170006INS_15__tree_iteratorIS7_SB_lEEbLS9_0EEEONS0_IT_T0_EE, symObjAddr: 0x58E94, symBinAddr: 0x10005BE80, symSize: 0x2E8 }
  - { offsetInCU: 0x29F80, offset: 0x29F80, size: 0x8, addend: 0x0, symName: __ZNSt3__13mapI8CStudentNS_15__list_iteratorIS1_PvEENS_4lessIS1_EENS_9allocatorINS_4pairIKS1_S4_EEEEE4findB8ue170006ERS9_, symObjAddr: 0x5917C, symBinAddr: 0x10005C168, symSize: 0x2BC }
  - { offsetInCU: 0x29FB7, offset: 0x29FB7, size: 0x8, addend: 0x0, symName: __ZNSt3__13mapI8CStudentNS_15__list_iteratorIS1_PvEENS_4lessIS1_EENS_9allocatorINS_4pairIKS1_S4_EEEEE3endB8ue170006Ev, symObjAddr: 0x59468, symBinAddr: 0x10005C454, symSize: 0x2B4 }
  - { offsetInCU: 0x29FDE, offset: 0x29FDE, size: 0x8, addend: 0x0, symName: __ZNSt3__14listI8CStudentNS_9allocatorIS1_EEE5eraseENS_21__list_const_iteratorIS1_PvEE, symObjAddr: 0x5971C, symBinAddr: 0x10005C708, symSize: 0x38C }
  - { offsetInCU: 0x2A05A, offset: 0x2A05A, size: 0x8, addend: 0x0, symName: __ZNSt3__121__list_const_iteratorI8CStudentPvEC1B8ue170006ERKNS_15__list_iteratorIS1_S2_EE, symObjAddr: 0x59AA8, symBinAddr: 0x10005CA94, symSize: 0x34 }
  - { offsetInCU: 0x2A093, offset: 0x2A093, size: 0x8, addend: 0x0, symName: __ZNSt3__13mapI8CStudentNS_15__list_iteratorIS1_PvEENS_4lessIS1_EENS_9allocatorINS_4pairIKS1_S4_EEEEE5eraseB8ue170006ENS_14__map_iteratorINS_15__tree_iteratorINS_12__value_typeIS1_S4_EEPNS_11__tree_nodeISG_S3_EElEEEE, symObjAddr: 0x59ADC, symBinAddr: 0x10005CAC8, symSize: 0x3E4 }
  - { offsetInCU: 0x2A0CD, offset: 0x2A0CD, size: 0x8, addend: 0x0, symName: __ZNSt3__16__treeINS_12__value_typeI8CStudentNS_15__list_iteratorIS2_PvEEEENS_19__map_value_compareIS2_S6_NS_4lessIS2_EELb1EEENS_9allocatorIS6_EEE4findIS2_EENS_15__tree_iteratorIS6_PNS_11__tree_nodeIS6_S4_EElEERKT_, symObjAddr: 0x59EC0, symBinAddr: 0x10005CEAC, symSize: 0x3FC }
  - { offsetInCU: 0x2A122, offset: 0x2A122, size: 0x8, addend: 0x0, symName: __ZNSt3__16__treeINS_12__value_typeI8CStudentNS_15__list_iteratorIS2_PvEEEENS_19__map_value_compareIS2_S6_NS_4lessIS2_EELb1EEENS_9allocatorIS6_EEE13__lower_boundIS2_EENS_15__tree_iteratorIS6_PNS_11__tree_nodeIS6_S4_EElEERKT_SI_PNS_15__tree_end_nodeIPNS_16__tree_node_baseIS4_EEEE, symObjAddr: 0x5A2BC, symBinAddr: 0x10005D2A8, symSize: 0x2E0 }
  - { offsetInCU: 0x2A184, offset: 0x2A184, size: 0x8, addend: 0x0, symName: __ZNSt3__16__treeINS_12__value_typeI8CStudentNS_15__list_iteratorIS2_PvEEEENS_19__map_value_compareIS2_S6_NS_4lessIS2_EELb1EEENS_9allocatorIS6_EEE3endB8ue170006Ev, symObjAddr: 0x5A5D0, symBinAddr: 0x10005D5BC, symSize: 0x204 }
  - { offsetInCU: 0x2A1AB, offset: 0x2A1AB, size: 0x8, addend: 0x0, symName: __ZNKSt3__115__tree_iteratorINS_12__value_typeI8CStudentNS_15__list_iteratorIS2_PvEEEEPNS_11__tree_nodeIS6_S4_EElEdeB8ue170006Ev, symObjAddr: 0x5A7D4, symBinAddr: 0x10005D7C0, symSize: 0x28 }
  - { offsetInCU: 0x2A1D1, offset: 0x2A1D1, size: 0x8, addend: 0x0, symName: __ZNSt3__115__tree_iteratorINS_12__value_typeI8CStudentNS_15__list_iteratorIS2_PvEEEEPNS_11__tree_nodeIS6_S4_EElEC1B8ue170006EPNS_15__tree_end_nodeIPNS_16__tree_node_baseIS4_EEEE, symObjAddr: 0x5A7FC, symBinAddr: 0x10005D7E8, symSize: 0x34 }
  - { offsetInCU: 0x2A20A, offset: 0x2A20A, size: 0x8, addend: 0x0, symName: __ZNSt3__115__tree_iteratorINS_12__value_typeI8CStudentNS_15__list_iteratorIS2_PvEEEEPNS_11__tree_nodeIS6_S4_EElEC2B8ue170006EPNS_15__tree_end_nodeIPNS_16__tree_node_baseIS4_EEEE, symObjAddr: 0x5A830, symBinAddr: 0x10005D81C, symSize: 0x70 }
  - { offsetInCU: 0x2A243, offset: 0x2A243, size: 0x8, addend: 0x0, symName: __ZNSt3__121__list_const_iteratorI8CStudentPvEC2B8ue170006ERKNS_15__list_iteratorIS1_S2_EE, symObjAddr: 0x5A958, symBinAddr: 0x10005D944, symSize: 0xB0 }
  - { offsetInCU: 0x2A27C, offset: 0x2A27C, size: 0x8, addend: 0x0, symName: __ZNSt3__16__treeINS_12__value_typeI8CStudentNS_15__list_iteratorIS2_PvEEEENS_19__map_value_compareIS2_S6_NS_4lessIS2_EELb1EEENS_9allocatorIS6_EEE5eraseENS_21__tree_const_iteratorIS6_PNS_11__tree_nodeIS6_S4_EElEE, symObjAddr: 0x5AA08, symBinAddr: 0x10005D9F4, symSize: 0x310 }
  - { offsetInCU: 0x2A2EB, offset: 0x2A2EB, size: 0x8, addend: 0x0, symName: __ZNSt3__121__tree_const_iteratorINS_12__value_typeI8CStudentNS_15__list_iteratorIS2_PvEEEEPNS_11__tree_nodeIS6_S4_EElEC1B8ue170006ENS_15__tree_iteratorIS6_S9_lEE, symObjAddr: 0x5AD18, symBinAddr: 0x10005DD04, symSize: 0x238 }
  - { offsetInCU: 0x2A329, offset: 0x2A329, size: 0x8, addend: 0x0, symName: __ZNKSt3__121__tree_const_iteratorINS_12__value_typeI8CStudentNS_15__list_iteratorIS2_PvEEEEPNS_11__tree_nodeIS6_S4_EElE8__get_npB8ue170006Ev, symObjAddr: 0x5AF50, symBinAddr: 0x10005DF3C, symSize: 0x60 }
  - { offsetInCU: 0x2A34F, offset: 0x2A34F, size: 0x8, addend: 0x0, symName: __ZNSt3__16__treeINS_12__value_typeI8CStudentNS_15__list_iteratorIS2_PvEEEENS_19__map_value_compareIS2_S6_NS_4lessIS2_EELb1EEENS_9allocatorIS6_EEE21__remove_node_pointerEPNS_11__tree_nodeIS6_S4_EE, symObjAddr: 0x5AFB0, symBinAddr: 0x10005DF9C, symSize: 0x388 }
  - { offsetInCU: 0x2A39B, offset: 0x2A39B, size: 0x8, addend: 0x0, symName: __ZNKSt3__121__tree_const_iteratorINS_12__value_typeI8CStudentNS_15__list_iteratorIS2_PvEEEEPNS_11__tree_nodeIS6_S4_EElEdeB8ue170006Ev, symObjAddr: 0x5B338, symBinAddr: 0x10005E324, symSize: 0x28 }
  - { offsetInCU: 0x2A3C1, offset: 0x2A3C1, size: 0x8, addend: 0x0, symName: __ZNSt3__115__tree_iteratorINS_12__value_typeI8CStudentNS_15__list_iteratorIS2_PvEEEEPNS_11__tree_nodeIS6_S4_EElEppB8ue170006Ev, symObjAddr: 0x5B360, symBinAddr: 0x10005E34C, symSize: 0xA8 }
  - { offsetInCU: 0x2A3E7, offset: 0x2A3E7, size: 0x8, addend: 0x0, symName: __ZNSt3__121__tree_const_iteratorINS_12__value_typeI8CStudentNS_15__list_iteratorIS2_PvEEEEPNS_11__tree_nodeIS6_S4_EElEC2B8ue170006ENS_15__tree_iteratorIS6_S9_lEE, symObjAddr: 0x5D5D0, symBinAddr: 0x1000605BC, symSize: 0x270 }
  - { offsetInCU: 0x2A425, offset: 0x2A425, size: 0x8, addend: 0x0, symName: __ZN10CStudyDeptD2Ev, symObjAddr: 0x5D840, symBinAddr: 0x10006082C, symSize: 0x38 }
  - { offsetInCU: 0x2A452, offset: 0x2A452, size: 0x8, addend: 0x0, symName: __ZNSt3__13mapI8CStudentNS_15__list_iteratorIS1_PvEENS_4lessIS1_EENS_9allocatorINS_4pairIKS1_S4_EEEEED1B8ue170006Ev, symObjAddr: 0x5D878, symBinAddr: 0x100060864, symSize: 0x2C }
  - { offsetInCU: 0x2A47C, offset: 0x2A47C, size: 0x8, addend: 0x0, symName: __ZNSt3__13mapI8CStudentNS_15__list_iteratorIS1_PvEENS_4lessIS1_EENS_9allocatorINS_4pairIKS1_S4_EEEEED2B8ue170006Ev, symObjAddr: 0x5D8A4, symBinAddr: 0x100060890, symSize: 0x2C }
  - { offsetInCU: 0x2A4A6, offset: 0x2A4A6, size: 0x8, addend: 0x0, symName: __ZNSt3__16__treeINS_12__value_typeI8CStudentNS_15__list_iteratorIS2_PvEEEENS_19__map_value_compareIS2_S6_NS_4lessIS2_EELb1EEENS_9allocatorIS6_EEED1Ev, symObjAddr: 0x5D8D0, symBinAddr: 0x1000608BC, symSize: 0x2C }
  - { offsetInCU: 0x2A4D2, offset: 0x2A4D2, size: 0x8, addend: 0x0, symName: __ZNSt3__16__treeINS_12__value_typeI8CStudentNS_15__list_iteratorIS2_PvEEEENS_19__map_value_compareIS2_S6_NS_4lessIS2_EELb1EEENS_9allocatorIS6_EEED2Ev, symObjAddr: 0x5D8FC, symBinAddr: 0x1000608E8, symSize: 0x38 }
  - { offsetInCU: 0x2A4FE, offset: 0x2A4FE, size: 0x8, addend: 0x0, symName: __ZNSt3__16__treeINS_12__value_typeI8CStudentNS_15__list_iteratorIS2_PvEEEENS_19__map_value_compareIS2_S6_NS_4lessIS2_EELb1EEENS_9allocatorIS6_EEE7destroyEPNS_11__tree_nodeIS6_S4_EE, symObjAddr: 0x5D934, symBinAddr: 0x100060920, symSize: 0x134 }
  - { offsetInCU: 0x2A54A, offset: 0x2A54A, size: 0x8, addend: 0x0, symName: __ZNSt3__14listI8CStudentNS_9allocatorIS1_EEEC2B8ue170006Ev, symObjAddr: 0x5DA68, symBinAddr: 0x100060A54, symSize: 0x2C }
  - { offsetInCU: 0x2A574, offset: 0x2A574, size: 0x8, addend: 0x0, symName: __ZNSt3__110__list_impI8CStudentNS_9allocatorIS1_EEEC2Ev, symObjAddr: 0x5DA94, symBinAddr: 0x100060A80, symSize: 0x290 }
  - { offsetInCU: 0x2A5A1, offset: 0x2A5A1, size: 0x8, addend: 0x0, symName: __ZNSt3__116__list_node_baseI8CStudentPvEC1B8ue170006Ev, symObjAddr: 0x5DD24, symBinAddr: 0x100060D10, symSize: 0x2C }
  - { offsetInCU: 0x2A5CB, offset: 0x2A5CB, size: 0x8, addend: 0x0, symName: __ZNSt3__117__compressed_pairImNS_9allocatorINS_11__list_nodeI8CStudentPvEEEEEC1B8ue170006IiNS_18__default_init_tagEEEOT_OT0_, symObjAddr: 0x5DD50, symBinAddr: 0x100060D3C, symSize: 0x3C }
  - { offsetInCU: 0x2A623, offset: 0x2A623, size: 0x8, addend: 0x0, symName: __ZNSt3__116__list_node_baseI8CStudentPvEC2B8ue170006Ev, symObjAddr: 0x5DD8C, symBinAddr: 0x100060D78, symSize: 0xCC }
  - { offsetInCU: 0x2A64D, offset: 0x2A64D, size: 0x8, addend: 0x0, symName: __ZNSt3__117__compressed_pairImNS_9allocatorINS_11__list_nodeI8CStudentPvEEEEEC2B8ue170006IiNS_18__default_init_tagEEEOT_OT0_, symObjAddr: 0x5DE58, symBinAddr: 0x100060E44, symSize: 0x40 }
  - { offsetInCU: 0x2A6A5, offset: 0x2A6A5, size: 0x8, addend: 0x0, symName: __ZNSt3__122__compressed_pair_elemINS_9allocatorINS_11__list_nodeI8CStudentPvEEEELi1ELb1EEC2B8ue170006ENS_18__default_init_tagE, symObjAddr: 0x5DE98, symBinAddr: 0x100060E84, symSize: 0x2C }
  - { offsetInCU: 0x2A6DA, offset: 0x2A6DA, size: 0x8, addend: 0x0, symName: __ZNSt3__19allocatorINS_11__list_nodeI8CStudentPvEEEC2B8ue170006Ev, symObjAddr: 0x5DEC4, symBinAddr: 0x100060EB0, symSize: 0x2C }
  - { offsetInCU: 0x2A704, offset: 0x2A704, size: 0x8, addend: 0x0, symName: __ZNSt3__116__non_trivial_ifILb1ENS_9allocatorINS_11__list_nodeI8CStudentPvEEEEEC2B8ue170006Ev, symObjAddr: 0x5DEF0, symBinAddr: 0x100060EDC, symSize: 0x14 }
  - { offsetInCU: 0x2A72E, offset: 0x2A72E, size: 0x8, addend: 0x0, symName: __ZNSt3__13setINS_12basic_stringIcNS_11char_traitsIcEENS_9allocatorIcEEEENS_4lessIS6_EENS4_IS6_EEEC2B8ue170006Ev, symObjAddr: 0x5DF04, symBinAddr: 0x100060EF0, symSize: 0x1D8 }
  - { offsetInCU: 0x2A759, offset: 0x2A759, size: 0x8, addend: 0x0, symName: __ZNSt3__13setINS_12basic_stringIcNS_11char_traitsIcEENS_9allocatorIcEEEENS_4lessIS6_EENS4_IS6_EEED2B8ue170006Ev, symObjAddr: 0x5E0DC, symBinAddr: 0x1000610C8, symSize: 0x2C }
  - { offsetInCU: 0x2A783, offset: 0x2A783, size: 0x8, addend: 0x0, symName: __ZNSt3__14listI8CStudentNS_9allocatorIS1_EEEC2ESt16initializer_listIS1_E, symObjAddr: 0x5E108, symBinAddr: 0x1000610F4, symSize: 0x304 }
  - { offsetInCU: 0x2A7F1, offset: 0x2A7F1, size: 0x8, addend: 0x0, symName: __ZNKSt16initializer_listI8CStudentE5beginB8ue170006Ev, symObjAddr: 0x5E40C, symBinAddr: 0x1000613F8, symSize: 0x60 }
  - { offsetInCU: 0x2A817, offset: 0x2A817, size: 0x8, addend: 0x0, symName: __ZNKSt16initializer_listI8CStudentE3endB8ue170006Ev, symObjAddr: 0x5E46C, symBinAddr: 0x100061458, symSize: 0xB0 }
  - { offsetInCU: 0x2A83D, offset: 0x2A83D, size: 0x8, addend: 0x0, symName: __ZNKSt3__14listI8CStudentNS_9allocatorIS1_EEE4sizeB8ue170006Ev, symObjAddr: 0x5E51C, symBinAddr: 0x100061508, symSize: 0x6C }
  - { offsetInCU: 0x2A863, offset: 0x2A863, size: 0x8, addend: 0x0, symName: __ZNKSt3__110__equal_toclB8ue170006I8CStudentS2_EEbRKT_RKT0_, symObjAddr: 0x5F5C8, symBinAddr: 0x1000625B4, symSize: 0x34 }
  - { offsetInCU: 0x2A8B7, offset: 0x2A8B7, size: 0x8, addend: 0x0, symName: __ZNSt3__118__unwrap_iter_implINS_21__list_const_iteratorI8CStudentPvEELb0EE8__unwrapB8ue170006ES4_, symObjAddr: 0x5F5FC, symBinAddr: 0x1000625E8, symSize: 0x270 }
  - { offsetInCU: 0x2A8DE, offset: 0x2A8DE, size: 0x8, addend: 0x0, symName: __ZNSt3__13setINS_12basic_stringIcNS_11char_traitsIcEENS_9allocatorIcEEEENS_4lessIS6_EENS4_IS6_EEEC2B8ue170006ESt16initializer_listIS6_ERKS8_, symObjAddr: 0x5F86C, symBinAddr: 0x100062858, symSize: 0x2D4 }
  - { offsetInCU: 0x2A92C, offset: 0x2A92C, size: 0x8, addend: 0x0, symName: __ZNSt3__13setINS_12basic_stringIcNS_11char_traitsIcEENS_9allocatorIcEEEENS_4lessIS6_EENS4_IS6_EEE6insertB8ue170006IPKS6_EEvT_SE_, symObjAddr: 0x5FB40, symBinAddr: 0x100062B2C, symSize: 0x350 }
  - { offsetInCU: 0x2A99D, offset: 0x2A99D, size: 0x8, addend: 0x0, symName: __ZNKSt16initializer_listINSt3__112basic_stringIcNS0_11char_traitsIcEENS0_9allocatorIcEEEEE5beginB8ue170006Ev, symObjAddr: 0x5FE90, symBinAddr: 0x100062E7C, symSize: 0x60 }
  - { offsetInCU: 0x2A9C3, offset: 0x2A9C3, size: 0x8, addend: 0x0, symName: __ZNKSt16initializer_listINSt3__112basic_stringIcNS0_11char_traitsIcEENS0_9allocatorIcEEEEE3endB8ue170006Ev, symObjAddr: 0x5FEF0, symBinAddr: 0x100062EDC, symSize: 0xB0 }
  - { offsetInCU: 0x2A9E9, offset: 0x2A9E9, size: 0x8, addend: 0x0, symName: __ZNKSt3__13setINS_12basic_stringIcNS_11char_traitsIcEENS_9allocatorIcEEEENS_4lessIS6_EENS4_IS6_EEE4cendB8ue170006Ev, symObjAddr: 0x5FFA0, symBinAddr: 0x100062F8C, symSize: 0x234 }
  - { offsetInCU: 0x2AA10, offset: 0x2AA10, size: 0x8, addend: 0x0, symName: __ZNSt3__16__treeINS_12basic_stringIcNS_11char_traitsIcEENS_9allocatorIcEEEENS_4lessIS6_EENS4_IS6_EEE15__insert_uniqueB8ue170006ENS_21__tree_const_iteratorIS6_PNS_11__tree_nodeIS6_PvEElEERKS6_, symObjAddr: 0x601D4, symBinAddr: 0x1000631C0, symSize: 0x3A4 }
  - { offsetInCU: 0x2AA5A, offset: 0x2AA5A, size: 0x8, addend: 0x0, symName: __ZNKSt3__13setINS_12basic_stringIcNS_11char_traitsIcEENS_9allocatorIcEEEENS_4lessIS6_EENS4_IS6_EEE3endB8ue170006Ev, symObjAddr: 0x60578, symBinAddr: 0x100063564, symSize: 0x234 }
  - { offsetInCU: 0x2AA81, offset: 0x2AA81, size: 0x8, addend: 0x0, symName: __ZNSt3__16__treeINS_12basic_stringIcNS_11char_traitsIcEENS_9allocatorIcEEEENS_4lessIS6_EENS4_IS6_EEE30__emplace_hint_unique_key_argsIS6_JRKS6_EEENS_4pairINS_15__tree_iteratorIS6_PNS_11__tree_nodeIS6_PvEElEEbEENS_21__tree_const_iteratorIS6_SJ_lEERKT_DpOT0_, symObjAddr: 0x607AC, symBinAddr: 0x100063798, symSize: 0x604 }
  - { offsetInCU: 0x2AB66, offset: 0x2AB66, size: 0x8, addend: 0x0, symName: __ZNSt3__16__treeINS_12basic_stringIcNS_11char_traitsIcEENS_9allocatorIcEEEENS_4lessIS6_EENS4_IS6_EEE12__find_equalIS6_EERPNS_16__tree_node_baseIPvEENS_21__tree_const_iteratorIS6_PNS_11__tree_nodeIS6_SD_EElEERPNS_15__tree_end_nodeISF_EESG_RKT_, symObjAddr: 0x60DB0, symBinAddr: 0x100063D9C, symSize: 0xC4C }
  - { offsetInCU: 0x2AC1F, offset: 0x2AC1F, size: 0x8, addend: 0x0, symName: __ZNKSt3__121__tree_const_iteratorINS_12basic_stringIcNS_11char_traitsIcEENS_9allocatorIcEEEEPNS_11__tree_nodeIS6_PvEElE8__get_npB8ue170006Ev, symObjAddr: 0x61C84, symBinAddr: 0x100064C70, symSize: 0x60 }
  - { offsetInCU: 0x2AC45, offset: 0x2AC45, size: 0x8, addend: 0x0, symName: __ZNKSt3__13setINS_12basic_stringIcNS_11char_traitsIcEENS_9allocatorIcEEEENS_4lessIS6_EENS4_IS6_EEE4sizeB8ue170006Ev, symObjAddr: 0x61DC0, symBinAddr: 0x100064DAC, symSize: 0x6C }
  - { offsetInCU: 0x2AC6B, offset: 0x2AC6B, size: 0x8, addend: 0x0, symName: __ZNKSt3__13setINS_12basic_stringIcNS_11char_traitsIcEENS_9allocatorIcEEEENS_4lessIS6_EENS4_IS6_EEE5beginB8ue170006Ev, symObjAddr: 0x61E2C, symBinAddr: 0x100064E18, symSize: 0x234 }
  - { offsetInCU: 0x2ACB5, offset: 0x2ACB5, size: 0x8, addend: 0x0, symName: __ZNKSt3__113basic_ostreamIcNS_11char_traitsIcEEE6sentrycvbB8ue170006Ev, symObjAddr: 0x627A4, symBinAddr: 0x100065790, symSize: 0x88 }
  - { offsetInCU: 0x2ACDB, offset: 0x2ACDB, size: 0x8, addend: 0x0, symName: __ZNSt3__119ostreambuf_iteratorIcNS_11char_traitsIcEEEC1B8ue170006ERNS_13basic_ostreamIcS2_EE, symObjAddr: 0x62F8C, symBinAddr: 0x100065F78, symSize: 0x34 }
  - { offsetInCU: 0x2AD13, offset: 0x2AD13, size: 0x8, addend: 0x0, symName: __ZNKSt3__18ios_base5flagsB8ue170006Ev, symObjAddr: 0x62FC0, symBinAddr: 0x100065FAC, symSize: 0x8C }
  - { offsetInCU: 0x2AD3B, offset: 0x2AD3B, size: 0x8, addend: 0x0, symName: __ZNKSt3__19basic_iosIcNS_11char_traitsIcEEE4fillB8ue170006Ev, symObjAddr: 0x6304C, symBinAddr: 0x100066038, symSize: 0x198 }
  - { offsetInCU: 0x2AD63, offset: 0x2AD63, size: 0x8, addend: 0x0, symName: __ZNKSt3__119ostreambuf_iteratorIcNS_11char_traitsIcEEE6failedB8ue170006Ev, symObjAddr: 0x631E4, symBinAddr: 0x1000661D0, symSize: 0x6C }
  - { offsetInCU: 0x2AD89, offset: 0x2AD89, size: 0x8, addend: 0x0, symName: __ZNSt3__19basic_iosIcNS_11char_traitsIcEEE8setstateB8ue170006Ej, symObjAddr: 0x63250, symBinAddr: 0x10006623C, symSize: 0x2C }
  - { offsetInCU: 0x2ADBE, offset: 0x2ADBE, size: 0x8, addend: 0x0, symName: __ZNKSt3__18ios_base5widthB8ue170006Ev, symObjAddr: 0x6327C, symBinAddr: 0x100066268, symSize: 0x64 }
  - { offsetInCU: 0x2ADE6, offset: 0x2ADE6, size: 0x8, addend: 0x0, symName: __ZNSt3__115basic_streambufIcNS_11char_traitsIcEEE5sputnB8ue170006EPKcl, symObjAddr: 0x632E0, symBinAddr: 0x1000662CC, symSize: 0xC8 }
  - { offsetInCU: 0x2AE28, offset: 0x2AE28, size: 0x8, addend: 0x0, symName: __ZNSt3__112basic_stringIcNS_11char_traitsIcEENS_9allocatorIcEEEC1B8ue170006Emc, symObjAddr: 0x633A8, symBinAddr: 0x100066394, symSize: 0x3C }
  - { offsetInCU: 0x2AE70, offset: 0x2AE70, size: 0x8, addend: 0x0, symName: __ZNSt3__112basic_stringIcNS_11char_traitsIcEENS_9allocatorIcEEE4dataB8ue170006Ev, symObjAddr: 0x633E4, symBinAddr: 0x1000663D0, symSize: 0x28 }
  - { offsetInCU: 0x2AE96, offset: 0x2AE96, size: 0x8, addend: 0x0, symName: __ZNSt3__18ios_base5widthB8ue170006El, symObjAddr: 0x6340C, symBinAddr: 0x1000663F8, symSize: 0xB8 }
  - { offsetInCU: 0x2AEDC, offset: 0x2AEDC, size: 0x8, addend: 0x0, symName: __ZNSt3__112basic_stringIcNS_11char_traitsIcEENS_9allocatorIcEEEC2B8ue170006Emc, symObjAddr: 0x634C4, symBinAddr: 0x1000664B0, symSize: 0x204 }
  - { offsetInCU: 0x2AF27, offset: 0x2AF27, size: 0x8, addend: 0x0, symName: __ZNSt3__119ostreambuf_iteratorIcNS_11char_traitsIcEEEC2B8ue170006ERNS_13basic_ostreamIcS2_EE, symObjAddr: 0x636DC, symBinAddr: 0x1000666C8, symSize: 0x10C }
  - { offsetInCU: 0x2AF5F, offset: 0x2AF5F, size: 0x8, addend: 0x0, symName: __ZNKSt3__19basic_iosIcNS_11char_traitsIcEEE5rdbufB8ue170006Ev, symObjAddr: 0x637E8, symBinAddr: 0x1000667D4, symSize: 0x24 }
  - { offsetInCU: 0x2AF87, offset: 0x2AF87, size: 0x8, addend: 0x0, symName: __ZNKSt3__18ios_base5rdbufB8ue170006Ev, symObjAddr: 0x6380C, symBinAddr: 0x1000667F8, symSize: 0x64 }
  - { offsetInCU: 0x2AFAD, offset: 0x2AFAD, size: 0x8, addend: 0x0, symName: __ZNSt3__111char_traitsIcE11eq_int_typeB8ue170006Eii, symObjAddr: 0x63870, symBinAddr: 0x10006685C, symSize: 0x28 }
  - { offsetInCU: 0x2AFE0, offset: 0x2AFE0, size: 0x8, addend: 0x0, symName: __ZNSt3__111char_traitsIcE3eofB8ue170006Ev, symObjAddr: 0x63898, symBinAddr: 0x100066884, symSize: 0x8 }
  - { offsetInCU: 0x2AFF4, offset: 0x2AFF4, size: 0x8, addend: 0x0, symName: __ZNKSt3__19basic_iosIcNS_11char_traitsIcEEE5widenB8ue170006Ec, symObjAddr: 0x638A0, symBinAddr: 0x10006688C, symSize: 0x2A4 }
  - { offsetInCU: 0x2B06B, offset: 0x2B06B, size: 0x8, addend: 0x0, symName: __ZNKSt3__15ctypeIcE5widenB8ue170006Ec, symObjAddr: 0x63B70, symBinAddr: 0x100066B5C, symSize: 0xBC }
  - { offsetInCU: 0x2B0A0, offset: 0x2B0A0, size: 0x8, addend: 0x0, symName: __ZNSt3__18ios_base8setstateB8ue170006Ej, symObjAddr: 0x63C2C, symBinAddr: 0x100066C18, symSize: 0x9C }
...
